; Listing generated by Microsoft (R) Optimizing Compiler Version 15.00.30729.01 

	TITLE	c:\cygwin\home\uejima\PDFLibNet\libAFPDFLib\AFPDFDocInterop.cpp
	.686P
	.XMM
	include listing.inc
	.model	flat


PUBLIC	??_R4AFPDFDocInterop@@6B@			; AFPDFDocInterop::`RTTI Complete Object Locator'
PUBLIC	??_R3AFPDFDocInterop@@8				; AFPDFDocInterop::`RTTI Class Hierarchy Descriptor'
PUBLIC	??_R2AFPDFDocInterop@@8				; AFPDFDocInterop::`RTTI Base Class Array'
PUBLIC	??_R1A@?0A@EA@AFPDFDocInterop@@8		; AFPDFDocInterop::`RTTI Base Class Descriptor at (0,-1,0,64)'
PUBLIC	??_R0?AVAFPDFDocInterop@@@8			; AFPDFDocInterop `RTTI Type Descriptor'
PUBLIC	??_GAFPDFDocInterop@@UAEPAXI@Z			; AFPDFDocInterop::`scalar deleting destructor'
PUBLIC	?GetViewWidth@AFPDFDoc@@QAEJXZ			; AFPDFDoc::GetViewWidth
PUBLIC	?GetViewHeight@AFPDFDoc@@QAEJXZ			; AFPDFDoc::GetViewHeight
PUBLIC	?SetViewWidth@AFPDFDoc@@QAEXJ@Z			; AFPDFDoc::SetViewWidth
PUBLIC	?SetViewHeight@AFPDFDoc@@QAEXJ@Z		; AFPDFDoc::SetViewHeight
PUBLIC	?GetViewX@AFPDFDoc@@QAEJXZ			; AFPDFDoc::GetViewX
PUBLIC	?SetViewX@AFPDFDoc@@QAEXJ@Z			; AFPDFDoc::SetViewX
PUBLIC	?GetViewY@AFPDFDoc@@QAEJXZ			; AFPDFDoc::GetViewY
PUBLIC	?SetViewY@AFPDFDoc@@QAEXJ@Z			; AFPDFDoc::SetViewY
PUBLIC	?findPage@PDFDoc@@QAEHHH@Z			; PDFDoc::findPage
PUBLIC	?findpage@AFPDFDoc@@QAEHHH@Z			; AFPDFDoc::findpage
PUBLIC	?getPage@Catalog@@QAEPAVPage@@H@Z		; Catalog::getPage
PUBLIC	?getCatalog@PDFDoc@@QAEPAVCatalog@@XZ		; PDFDoc::getCatalog
PUBLIC	?getDoc@AFPDFDoc@@QAEPAVPDFDoc@@XZ		; AFPDFDoc::getDoc
PUBLIC	?getLength@GString@@QAEHXZ			; GString::getLength
PUBLIC	?SupportsMuPDF@AFPDFDoc@@QAE_NXZ		; AFPDFDoc::SupportsMuPDF
PUBLIC	?GetUseMuPDF@AFPDFDoc@@QAE_NXZ			; AFPDFDoc::GetUseMuPDF
PUBLIC	?SetUseMuPDF@AFPDFDoc@@QAEX_N@Z			; AFPDFDoc::SetUseMuPDF
PUBLIC	??_7AFPDFDocInterop@@6B@			; AFPDFDocInterop::`vftable'
EXTRN	??_EAFPDFDocInterop@@UAEPAXI@Z:PROC		; AFPDFDocInterop::`vector deleting destructor'
EXTRN	??_7type_info@@6B@:QWORD			; type_info::`vftable'
EXTRN	__imp__free:PROC
EXTRN	__imp__malloc:PROC
EXTRN	??2@YAPAXI@Z:PROC				; operator new
EXTRN	??3@YAXPAX@Z:PROC				; operator delete
;	COMDAT ??_7AFPDFDocInterop@@6B@
CONST	SEGMENT
??_7AFPDFDocInterop@@6B@ DD FLAT:??_R4AFPDFDocInterop@@6B@ ; AFPDFDocInterop::`vftable'
	DD	FLAT:??_EAFPDFDocInterop@@UAEPAXI@Z
CONST	ENDS
;	COMDAT ??_R4AFPDFDocInterop@@6B@
rdata$r	SEGMENT
??_R4AFPDFDocInterop@@6B@ DD 00H			; AFPDFDocInterop::`RTTI Complete Object Locator'
	DD	00H
	DD	00H
	DD	FLAT:??_R0?AVAFPDFDocInterop@@@8
	DD	FLAT:??_R3AFPDFDocInterop@@8
rdata$r	ENDS
;	COMDAT ??_R3AFPDFDocInterop@@8
rdata$r	SEGMENT
??_R3AFPDFDocInterop@@8 DD 00H				; AFPDFDocInterop::`RTTI Class Hierarchy Descriptor'
	DD	00H
	DD	01H
	DD	FLAT:??_R2AFPDFDocInterop@@8
rdata$r	ENDS
;	COMDAT ??_R2AFPDFDocInterop@@8
rdata$r	SEGMENT
??_R2AFPDFDocInterop@@8 DD FLAT:??_R1A@?0A@EA@AFPDFDocInterop@@8 ; AFPDFDocInterop::`RTTI Base Class Array'
rdata$r	ENDS
;	COMDAT ??_R1A@?0A@EA@AFPDFDocInterop@@8
rdata$r	SEGMENT
??_R1A@?0A@EA@AFPDFDocInterop@@8 DD FLAT:??_R0?AVAFPDFDocInterop@@@8 ; AFPDFDocInterop::`RTTI Base Class Descriptor at (0,-1,0,64)'
	DD	00H
	DD	00H
	DD	0ffffffffH
	DD	00H
	DD	040H
	DD	FLAT:??_R3AFPDFDocInterop@@8
rdata$r	ENDS
;	COMDAT ??_R0?AVAFPDFDocInterop@@@8
_DATA	SEGMENT
??_R0?AVAFPDFDocInterop@@@8 DD FLAT:??_7type_info@@6B@	; AFPDFDocInterop `RTTI Type Descriptor'
	DD	00H
	DB	'.?AVAFPDFDocInterop@@', 00H
__bad_alloc_Message DD FLAT:??_C@_0P@GHFPNOJB@bad?5allocation?$AA@
PUBLIC	?SetSliceBox@AFPDFDocInterop@@QAEXHHHH@Z	; AFPDFDocInterop::SetSliceBox
; Function compile flags: /Ogtpy
; File c:\cygwin\home\uejima\pdflibnet\libafpdflib\afpdfdocinterop.cpp
;	COMDAT ?SetSliceBox@AFPDFDocInterop@@QAEXHHHH@Z
_TEXT	SEGMENT
_x$ = 8							; size = 4
_y$ = 12						; size = 4
_w$ = 16						; size = 4
_h$ = 20						; size = 4
?SetSliceBox@AFPDFDocInterop@@QAEXHHHH@Z PROC		; AFPDFDocInterop::SetSliceBox, COMDAT
; _this$ = ecx

; 280  : 		((AFPDFDoc *)_ptr)->SetSliceBox(x,y,w,h);

	mov	eax, DWORD PTR [ecx+4]
	mov	ecx, DWORD PTR _x$[esp-4]
	mov	edx, DWORD PTR _w$[esp-4]
	push	esi
	push	edi
	mov	edi, DWORD PTR _y$[esp+4]
	lea	esi, DWORD PTR [ecx+edx]
	mov	DWORD PTR [eax+444], esi
	mov	esi, DWORD PTR _h$[esp+4]
	add	edi, esi
	mov	DWORD PTR [eax+448], edi
	pop	edi
	mov	DWORD PTR [eax+456], esi
	mov	DWORD PTR [eax+436], ecx
	mov	DWORD PTR [eax+440], ecx
	mov	DWORD PTR [eax+452], edx
	pop	esi

; 281  : 	}

	ret	16					; 00000010H
?SetSliceBox@AFPDFDocInterop@@QAEXHHHH@Z ENDP		; AFPDFDocInterop::SetSliceBox
_TEXT	ENDS
PUBLIC	?IsBusy@AFPDFDocInterop@@QAE_NXZ		; AFPDFDocInterop::IsBusy
; Function compile flags: /Ogtpy
;	COMDAT ?IsBusy@AFPDFDocInterop@@QAE_NXZ
_TEXT	SEGMENT
_exitcode$161375 = -4					; size = 4
?IsBusy@AFPDFDocInterop@@QAE_NXZ PROC			; AFPDFDocInterop::IsBusy, COMDAT
; _this$ = ecx

; 275  : 	bool AFPDFDocInterop::IsBusy(){

	push	ecx

; 276  : 		return ((AFPDFDoc *)_ptr)->IsBusy();

	mov	ecx, DWORD PTR [ecx+4]
	mov	eax, DWORD PTR [ecx+240]
	test	eax, eax
	je	SHORT $LN3@IsBusy@2
	lea	ecx, DWORD PTR _exitcode$161375[esp+4]
	push	ecx
	push	eax
	mov	DWORD PTR _exitcode$161375[esp+12], 0
	call	DWORD PTR __imp__GetExitCodeThread@8
	cmp	DWORD PTR _exitcode$161375[esp+4], 259	; 00000103H
	jne	SHORT $LN3@IsBusy@2
	mov	al, 1

; 277  : 	}

	pop	ecx
	ret	0

; 276  : 		return ((AFPDFDoc *)_ptr)->IsBusy();

$LN3@IsBusy@2:
	xor	al, al

; 277  : 	}

	pop	ecx
	ret	0
?IsBusy@AFPDFDocInterop@@QAE_NXZ ENDP			; AFPDFDocInterop::IsBusy
_TEXT	ENDS
PUBLIC	?IsJpgBusy@AFPDFDocInterop@@QAE_NXZ		; AFPDFDocInterop::IsJpgBusy
; Function compile flags: /Ogtpy
;	COMDAT ?IsJpgBusy@AFPDFDocInterop@@QAE_NXZ
_TEXT	SEGMENT
_exitcode$161386 = -4					; size = 4
?IsJpgBusy@AFPDFDocInterop@@QAE_NXZ PROC		; AFPDFDocInterop::IsJpgBusy, COMDAT
; _this$ = ecx

; 271  : 	bool AFPDFDocInterop::IsJpgBusy(){

	push	ecx

; 272  : 		return ((AFPDFDoc *)_ptr)->JpgIsBusy();

	mov	ecx, DWORD PTR [ecx+4]
	mov	eax, DWORD PTR [ecx+244]
	test	eax, eax
	je	SHORT $LN3@IsJpgBusy
	lea	ecx, DWORD PTR _exitcode$161386[esp+4]
	push	ecx
	push	eax
	mov	DWORD PTR _exitcode$161386[esp+12], 0
	call	DWORD PTR __imp__GetExitCodeThread@8
	cmp	DWORD PTR _exitcode$161386[esp+4], 259	; 00000103H
	jne	SHORT $LN3@IsJpgBusy
	mov	al, 1

; 273  : 	}

	pop	ecx
	ret	0

; 272  : 		return ((AFPDFDoc *)_ptr)->JpgIsBusy();

$LN3@IsJpgBusy:
	xor	al, al

; 273  : 	}

	pop	ecx
	ret	0
?IsJpgBusy@AFPDFDocInterop@@QAE_NXZ ENDP		; AFPDFDocInterop::IsJpgBusy
_TEXT	ENDS
PUBLIC	?CancelJpgExport@AFPDFDocInterop@@QAEXXZ	; AFPDFDocInterop::CancelJpgExport
; Function compile flags: /Ogtpy
;	COMDAT ?CancelJpgExport@AFPDFDocInterop@@QAEXXZ
_TEXT	SEGMENT
?CancelJpgExport@AFPDFDocInterop@@QAEXXZ PROC		; AFPDFDocInterop::CancelJpgExport, COMDAT
; _this$ = ecx

; 267  : 		((AFPDFDoc *)_ptr)->CancelJpgSave();

	mov	eax, DWORD PTR [ecx+4]
	mov	ecx, DWORD PTR [eax+172]
	push	ecx
	call	DWORD PTR __imp__SetEvent@4

; 268  : 	}

	ret	0
?CancelJpgExport@AFPDFDocInterop@@QAEXXZ ENDP		; AFPDFDocInterop::CancelJpgExport
_TEXT	ENDS
PUBLIC	?SetRenderNotifyFinishedHandler@AFPDFDocInterop@@QAEXPAX@Z ; AFPDFDocInterop::SetRenderNotifyFinishedHandler
; Function compile flags: /Ogtpy
;	COMDAT ?SetRenderNotifyFinishedHandler@AFPDFDocInterop@@QAEXPAX@Z
_TEXT	SEGMENT
_handler$ = 8						; size = 4
?SetRenderNotifyFinishedHandler@AFPDFDocInterop@@QAEXPAX@Z PROC ; AFPDFDocInterop::SetRenderNotifyFinishedHandler, COMDAT
; _this$ = ecx

; 262  : 		((AFPDFDoc *)_ptr)->m_RenderNotifyFinishHandle = static_cast<PAGERENDERNOTIFY>(handler);

	mov	eax, DWORD PTR [ecx+4]
	mov	ecx, DWORD PTR _handler$[esp-4]
	mov	DWORD PTR [eax+224], ecx

; 263  : 	}

	ret	4
?SetRenderNotifyFinishedHandler@AFPDFDocInterop@@QAEXPAX@Z ENDP ; AFPDFDocInterop::SetRenderNotifyFinishedHandler
_TEXT	ENDS
PUBLIC	?SetRenderFinishedHandler@AFPDFDocInterop@@QAEXPAX@Z ; AFPDFDocInterop::SetRenderFinishedHandler
; Function compile flags: /Ogtpy
;	COMDAT ?SetRenderFinishedHandler@AFPDFDocInterop@@QAEXPAX@Z
_TEXT	SEGMENT
_handler$ = 8						; size = 4
?SetRenderFinishedHandler@AFPDFDocInterop@@QAEXPAX@Z PROC ; AFPDFDocInterop::SetRenderFinishedHandler, COMDAT
; _this$ = ecx

; 259  : 		((AFPDFDoc *)_ptr)->m_RenderFinishHandle = static_cast<NOTIFYHANDLE>(handler);

	mov	eax, DWORD PTR [ecx+4]
	mov	ecx, DWORD PTR _handler$[esp-4]
	mov	DWORD PTR [eax+220], ecx

; 260  : 	}

	ret	4
?SetRenderFinishedHandler@AFPDFDocInterop@@QAEXPAX@Z ENDP ; AFPDFDocInterop::SetRenderFinishedHandler
_TEXT	ENDS
PUBLIC	?SetExportFinishedHandler@AFPDFDocInterop@@QAEXPAX@Z ; AFPDFDocInterop::SetExportFinishedHandler
; Function compile flags: /Ogtpy
;	COMDAT ?SetExportFinishedHandler@AFPDFDocInterop@@QAEXPAX@Z
_TEXT	SEGMENT
_handler$ = 8						; size = 4
?SetExportFinishedHandler@AFPDFDocInterop@@QAEXPAX@Z PROC ; AFPDFDocInterop::SetExportFinishedHandler, COMDAT
; _this$ = ecx

; 255  : 		((AFPDFDoc *)_ptr)->m_ExportFinishHandle = static_cast<NOTIFYHANDLE>(handler);

	mov	eax, DWORD PTR [ecx+4]
	mov	ecx, DWORD PTR _handler$[esp-4]
	mov	DWORD PTR [eax+216], ecx

; 256  : 	}

	ret	4
?SetExportFinishedHandler@AFPDFDocInterop@@QAEXPAX@Z ENDP ; AFPDFDocInterop::SetExportFinishedHandler
_TEXT	ENDS
PUBLIC	?SetExportProgressHandler@AFPDFDocInterop@@QAEXPAX@Z ; AFPDFDocInterop::SetExportProgressHandler
; Function compile flags: /Ogtpy
;	COMDAT ?SetExportProgressHandler@AFPDFDocInterop@@QAEXPAX@Z
_TEXT	SEGMENT
_handler$ = 8						; size = 4
?SetExportProgressHandler@AFPDFDocInterop@@QAEXPAX@Z PROC ; AFPDFDocInterop::SetExportProgressHandler, COMDAT
; _this$ = ecx

; 252  : 		((AFPDFDoc *)_ptr)->m_ExportProgressHandle = static_cast<PROGRESSHANDLE>(handler);

	mov	eax, DWORD PTR [ecx+4]
	mov	ecx, DWORD PTR _handler$[esp-4]
	mov	DWORD PTR [eax+212], ecx

; 253  : 	}

	ret	4
?SetExportProgressHandler@AFPDFDocInterop@@QAEXPAX@Z ENDP ; AFPDFDocInterop::SetExportProgressHandler
_TEXT	ENDS
PUBLIC	?SetOwnerPassword@AFPDFDocInterop@@QAEXPAD@Z	; AFPDFDocInterop::SetOwnerPassword
; Function compile flags: /Ogtpy
;	COMDAT ?SetOwnerPassword@AFPDFDocInterop@@QAEXPAD@Z
_TEXT	SEGMENT
_pass$ = 8						; size = 4
?SetOwnerPassword@AFPDFDocInterop@@QAEXPAD@Z PROC	; AFPDFDocInterop::SetOwnerPassword, COMDAT
; _this$ = ecx

; 213  : 		((AFPDFDoc *)_ptr)->SetOwnerPassword(pass);

	mov	ecx, DWORD PTR [ecx+4]
	add	ecx, 356				; 00000164H
	jmp	DWORD PTR __imp_??4?$basic_string@DU?$char_traits@D@std@@V?$allocator@D@2@@std@@QAEAAV01@PBD@Z
?SetOwnerPassword@AFPDFDocInterop@@QAEXPAD@Z ENDP	; AFPDFDocInterop::SetOwnerPassword
_TEXT	ENDS
PUBLIC	?SetUserPassword@AFPDFDocInterop@@QAEXPAD@Z	; AFPDFDocInterop::SetUserPassword
; Function compile flags: /Ogtpy
;	COMDAT ?SetUserPassword@AFPDFDocInterop@@QAEXPAD@Z
_TEXT	SEGMENT
_pass$ = 8						; size = 4
?SetUserPassword@AFPDFDocInterop@@QAEXPAD@Z PROC	; AFPDFDocInterop::SetUserPassword, COMDAT
; _this$ = ecx

; 210  : 		((AFPDFDoc *)_ptr)->SetUserPassword(pass);

	mov	ecx, DWORD PTR [ecx+4]
	add	ecx, 384				; 00000180H
	jmp	DWORD PTR __imp_??4?$basic_string@DU?$char_traits@D@std@@V?$allocator@D@2@@std@@QAEAAV01@PBD@Z
?SetUserPassword@AFPDFDocInterop@@QAEXPAD@Z ENDP	; AFPDFDocInterop::SetUserPassword
_TEXT	ENDS
PUBLIC	?GetLastModifiedDate@AFPDFDocInterop@@QAEPADXZ	; AFPDFDocInterop::GetLastModifiedDate
; Function compile flags: /Ogtpy
;	COMDAT ?GetLastModifiedDate@AFPDFDocInterop@@QAEPADXZ
_TEXT	SEGMENT
?GetLastModifiedDate@AFPDFDocInterop@@QAEPADXZ PROC	; AFPDFDocInterop::GetLastModifiedDate, COMDAT
; _this$ = ecx

; 207  : 	char *AFPDFDocInterop::GetLastModifiedDate(){ return ((AFPDFDoc *)_ptr)->getLastModifiedDate(); }

	xor	eax, eax
	ret	0
?GetLastModifiedDate@AFPDFDocInterop@@QAEPADXZ ENDP	; AFPDFDocInterop::GetLastModifiedDate
_TEXT	ENDS
PUBLIC	?GetCreationDate@AFPDFDocInterop@@QAEPADXZ	; AFPDFDocInterop::GetCreationDate
; Function compile flags: /Ogtpy
;	COMDAT ?GetCreationDate@AFPDFDocInterop@@QAEPADXZ
_TEXT	SEGMENT
?GetCreationDate@AFPDFDocInterop@@QAEPADXZ PROC		; AFPDFDocInterop::GetCreationDate, COMDAT
; _this$ = ecx

; 206  : 	char *AFPDFDocInterop::GetCreationDate(){ return ((AFPDFDoc *)_ptr)->getCreationDate(); }

	xor	eax, eax
	ret	0
?GetCreationDate@AFPDFDocInterop@@QAEPADXZ ENDP		; AFPDFDocInterop::GetCreationDate
_TEXT	ENDS
PUBLIC	?cvtDevToUser@AFPDFDocInterop@@QAEXNNPAN0@Z	; AFPDFDocInterop::cvtDevToUser
; Function compile flags: /Ogtpy
;	COMDAT ?cvtDevToUser@AFPDFDocInterop@@QAEXNNPAN0@Z
_TEXT	SEGMENT
_ux$ = 8						; size = 8
_uy$ = 16						; size = 8
_dx$ = 24						; size = 4
_dy$ = 28						; size = 4
?cvtDevToUser@AFPDFDocInterop@@QAEXNNPAN0@Z PROC	; AFPDFDocInterop::cvtDevToUser, COMDAT
; _this$ = ecx

; 186  : 	void AFPDFDocInterop::cvtDevToUser(double ux, double uy, double *dx, double *dy){

	push	ebp
	mov	ebp, esp
	and	esp, -64				; ffffffc0H

; 187  : 		((AFPDFDoc *)_ptr)->cvtDevToUser(ux,uy,dx,dy);

	fld	QWORD PTR _uy$[ebp]
	mov	edx, DWORD PTR _dy$[ebp]
	mov	ecx, DWORD PTR [ecx+4]
	sub	esp, 60					; 0000003cH
	push	esi
	mov	esi, DWORD PTR _dx$[ebp]
	sub	esp, 16					; 00000010H
	fstp	QWORD PTR [esp+8]
	fld	QWORD PTR _ux$[ebp]
	fstp	QWORD PTR [esp]
	call	?cvtDevToUser@AFPDFDoc@@QAEXNNPAN0@Z	; AFPDFDoc::cvtDevToUser

; 188  : 	}

	pop	esi
	mov	esp, ebp
	pop	ebp
	ret	24					; 00000018H
?cvtDevToUser@AFPDFDocInterop@@QAEXNNPAN0@Z ENDP	; AFPDFDocInterop::cvtDevToUser
_TEXT	ENDS
PUBLIC	?cvtUserToDev@AFPDFDocInterop@@QAEXNNPAH0@Z	; AFPDFDocInterop::cvtUserToDev
; Function compile flags: /Ogtpy
;	COMDAT ?cvtUserToDev@AFPDFDocInterop@@QAEXNNPAH0@Z
_TEXT	SEGMENT
_ux$ = 8						; size = 8
_uy$ = 16						; size = 8
_dx$ = 24						; size = 4
_dy$ = 28						; size = 4
?cvtUserToDev@AFPDFDocInterop@@QAEXNNPAH0@Z PROC	; AFPDFDocInterop::cvtUserToDev, COMDAT
; _this$ = ecx

; 182  :  void AFPDFDocInterop::cvtUserToDev(double ux, double uy, int *dx, int *dy){

	push	ebp
	mov	ebp, esp
	and	esp, -64				; ffffffc0H

; 183  : 		((AFPDFDoc *)_ptr)->cvtUserToDev(ux,uy,dx,dy);	

	fld	QWORD PTR _uy$[ebp]
	mov	eax, DWORD PTR [ecx+4]
	sub	esp, 56					; 00000038H
	push	ebx
	mov	ebx, DWORD PTR _dx$[ebp]
	push	edi
	mov	edi, DWORD PTR _dy$[ebp]
	sub	esp, 16					; 00000010H
	fstp	QWORD PTR [esp+8]
	fld	QWORD PTR _ux$[ebp]
	fstp	QWORD PTR [esp]
	call	?cvtUserToDev@AFPDFDoc@@QAEXNNPAH0@Z	; AFPDFDoc::cvtUserToDev

; 184  : 	}

	pop	edi
	pop	ebx
	mov	esp, ebp
	pop	ebp
	ret	24					; 00000018H
?cvtUserToDev@AFPDFDocInterop@@QAEXNNPAH0@Z ENDP	; AFPDFDocInterop::cvtUserToDev
_TEXT	ENDS
PUBLIC	?SetZoom@AFPDFDocInterop@@QAEXN@Z		; AFPDFDocInterop::SetZoom
; Function compile flags: /Ogtpy
;	COMDAT ?SetZoom@AFPDFDocInterop@@QAEXN@Z
_TEXT	SEGMENT
tv133 = 8						; size = 4
_newValue$ = 8						; size = 8
?SetZoom@AFPDFDocInterop@@QAEXN@Z PROC			; AFPDFDocInterop::SetZoom, COMDAT
; _this$ = ecx

; 163  : 	((AFPDFDoc *)_ptr)->SetRenderDPI((FLOAT)newValue);

	fld	QWORD PTR _newValue$[esp-4]
	mov	eax, DWORD PTR [ecx+4]
	fstp	DWORD PTR tv133[esp-4]
	fld	DWORD PTR tv133[esp-4]
	fstp	QWORD PTR [eax+536]

; 164  :  }

	ret	8
?SetZoom@AFPDFDocInterop@@QAEXN@Z ENDP			; AFPDFDocInterop::SetZoom
_TEXT	ENDS
PUBLIC	?GetZoom@AFPDFDocInterop@@QAENXZ		; AFPDFDocInterop::GetZoom
; Function compile flags: /Ogtpy
;	COMDAT ?GetZoom@AFPDFDocInterop@@QAENXZ
_TEXT	SEGMENT
tv133 = -4						; size = 4
?GetZoom@AFPDFDocInterop@@QAENXZ PROC			; AFPDFDocInterop::GetZoom, COMDAT
; _this$ = ecx

; 159  :  double AFPDFDocInterop::GetZoom(){

	push	ecx

; 160  : 	return  (double)((AFPDFDoc *)_ptr)->GetRenderDPI();	 

	mov	eax, DWORD PTR [ecx+4]
	fld	QWORD PTR [eax+536]
	fstp	DWORD PTR tv133[esp+4]
	fld	DWORD PTR tv133[esp+4]

; 161  :  }

	pop	ecx
	ret	0
?GetZoom@AFPDFDocInterop@@QAENXZ ENDP			; AFPDFDocInterop::GetZoom
_TEXT	ENDS
PUBLIC	?GetSearchCount@AFPDFDocInterop@@QAEJXZ		; AFPDFDocInterop::GetSearchCount
; Function compile flags: /Ogtpy
;	COMDAT ?GetSearchCount@AFPDFDocInterop@@QAEJXZ
_TEXT	SEGMENT
?GetSearchCount@AFPDFDocInterop@@QAEJXZ PROC		; AFPDFDocInterop::GetSearchCount, COMDAT
; _this$ = ecx

; 152  : 	 return ((AFPDFDoc *)_ptr)->GetSearchCount();

	mov	eax, DWORD PTR [ecx+4]
	mov	eax, DWORD PTR [eax+324]

; 153  :  }

	ret	0
?GetSearchCount@AFPDFDocInterop@@QAEJXZ ENDP		; AFPDFDocInterop::GetSearchCount
_TEXT	ENDS
PUBLIC	?GetSearchResults@AFPDFDocInterop@@QAEPAVSearchResultInterop@@XZ ; AFPDFDocInterop::GetSearchResults
; Function compile flags: /Ogtpy
;	COMDAT ?GetSearchResults@AFPDFDocInterop@@QAEPAVSearchResultInterop@@XZ
_TEXT	SEGMENT
tv387 = -12						; size = 4
$T161509 = -8						; size = 4
_this$ = -4						; size = 4
?GetSearchResults@AFPDFDocInterop@@QAEPAVSearchResultInterop@@XZ PROC ; AFPDFDocInterop::GetSearchResults, COMDAT
; _this$ = ecx

; 138  :  SearchResultInterop *AFPDFDocInterop::GetSearchResults(){

	sub	esp, 12					; 0000000cH
	push	ebx
	mov	ebx, ecx

; 139  : 	 CPDFSearchResult *res=((AFPDFDoc *)_ptr)->GetSearchResults();

	mov	eax, DWORD PTR [ebx+4]
	push	ebp

; 140  : 	 long count = ((AFPDFDoc *)_ptr)->GetSearchCount();

	mov	ebp, DWORD PTR [eax+324]
	push	esi
	mov	esi, DWORD PTR [eax+320]

; 141  : 	 if(_resultsPtr!=0)

	mov	eax, DWORD PTR [ebx+8]
	mov	DWORD PTR _this$[esp+24], ebx
	test	eax, eax
	je	SHORT $LN4@GetSearchR@2

; 142  : 		 free(_resultsPtr);

	push	eax
	call	DWORD PTR __imp__free
	add	esp, 4
$LN4@GetSearchR@2:

; 143  : 	 _resultsPtr = (SearchResultInterop *)malloc(count*sizeof(SearchResultInterop));

	lea	eax, DWORD PTR [ebp+ebp*4]
	add	eax, eax
	add	eax, eax
	push	eax
	call	DWORD PTR __imp__malloc
	add	esp, 4
	mov	DWORD PTR [ebx+8], eax

; 144  : 	 for(int i=0;i<count;i++){

	test	ebp, ebp
	jle	SHORT $LN1@GetSearchR@2
	push	edi
	xor	edi, edi
	add	esi, 8
	mov	DWORD PTR tv387[esp+28], ebp
	npad	1
$LL3@GetSearchR@2:

; 145  : 		 SearchResultInterop *item=new SearchResultInterop(res[i].PageFound,res[i].left,res[i].top,res[i].right,res[i].bottom);

	push	20					; 00000014H
	call	??2@YAPAXI@Z				; operator new
	add	esp, 4
	test	eax, eax
	je	SHORT $LN7@GetSearchR@2
	mov	ebp, DWORD PTR [esi-8]
	mov	ecx, DWORD PTR [esi+4]
	mov	ebx, DWORD PTR [esi-4]
	mov	edx, DWORD PTR [esi]
	mov	DWORD PTR $T161509[esp+28], ebp
	mov	ebp, DWORD PTR [esi+16]
	mov	DWORD PTR [eax], ebp
	mov	ebp, DWORD PTR $T161509[esp+28]
	mov	DWORD PTR [eax+12], ebx
	mov	ebx, DWORD PTR _this$[esp+28]
	mov	DWORD PTR [eax+16], ecx
	mov	DWORD PTR [eax+4], ebp
	mov	DWORD PTR [eax+8], edx
	mov	ecx, eax
	jmp	SHORT $LN8@GetSearchR@2
$LN7@GetSearchR@2:
	xor	ecx, ecx
$LN8@GetSearchR@2:

; 146  : 		 _resultsPtr[i]=*item;

	mov	eax, DWORD PTR [ebx+8]
	mov	edx, DWORD PTR [ecx]
	add	eax, edi
	mov	DWORD PTR [eax], edx
	mov	edx, DWORD PTR [ecx+4]
	mov	DWORD PTR [eax+4], edx
	mov	edx, DWORD PTR [ecx+8]
	mov	DWORD PTR [eax+8], edx
	mov	edx, DWORD PTR [ecx+12]
	mov	DWORD PTR [eax+12], edx
	mov	ecx, DWORD PTR [ecx+16]
	add	esi, 28					; 0000001cH
	add	edi, 20					; 00000014H
	sub	DWORD PTR tv387[esp+28], 1
	mov	DWORD PTR [eax+16], ecx
	jne	SHORT $LL3@GetSearchR@2

; 147  : 	 }
; 148  : 	 return (SearchResultInterop *)_resultsPtr;

	mov	eax, DWORD PTR [ebx+8]
	pop	edi
$LN1@GetSearchR@2:
	pop	esi
	pop	ebp
	pop	ebx

; 149  :  }

	add	esp, 12					; 0000000cH
	ret	0
?GetSearchResults@AFPDFDocInterop@@QAEPAVSearchResultInterop@@XZ ENDP ; AFPDFDocInterop::GetSearchResults
_TEXT	ENDS
PUBLIC	?SetSearchCaseSensitive@AFPDFDocInterop@@QAEX_N@Z ; AFPDFDocInterop::SetSearchCaseSensitive
; Function compile flags: /Ogtpy
;	COMDAT ?SetSearchCaseSensitive@AFPDFDocInterop@@QAEX_N@Z
_TEXT	SEGMENT
_newVal$ = 8						; size = 1
?SetSearchCaseSensitive@AFPDFDocInterop@@QAEX_N@Z PROC	; AFPDFDocInterop::SetSearchCaseSensitive, COMDAT
; _this$ = ecx

; 128  : 	((AFPDFDoc *)_ptr)->SetSearchCaseSensitive(newVal);

	mov	eax, DWORD PTR [ecx+4]
	mov	cl, BYTE PTR _newVal$[esp-4]
	mov	BYTE PTR [eax+545], cl

; 129  : }

	ret	4
?SetSearchCaseSensitive@AFPDFDocInterop@@QAEX_N@Z ENDP	; AFPDFDocInterop::SetSearchCaseSensitive
_TEXT	ENDS
PUBLIC	?GetSearchCaseSensitive@AFPDFDocInterop@@QAE_NXZ ; AFPDFDocInterop::GetSearchCaseSensitive
; Function compile flags: /Ogtpy
;	COMDAT ?GetSearchCaseSensitive@AFPDFDocInterop@@QAE_NXZ
_TEXT	SEGMENT
?GetSearchCaseSensitive@AFPDFDocInterop@@QAE_NXZ PROC	; AFPDFDocInterop::GetSearchCaseSensitive, COMDAT
; _this$ = ecx

; 125  : 	return ((AFPDFDoc *)_ptr)->GetSearchCaseSensitive();

	mov	eax, DWORD PTR [ecx+4]
	mov	al, BYTE PTR [eax+545]

; 126  : }

	ret	0
?GetSearchCaseSensitive@AFPDFDocInterop@@QAE_NXZ ENDP	; AFPDFDocInterop::GetSearchCaseSensitive
_TEXT	ENDS
PUBLIC	?SetSearchPage@AFPDFDocInterop@@QAEJJ@Z		; AFPDFDocInterop::SetSearchPage
; Function compile flags: /Ogtpy
;	COMDAT ?SetSearchPage@AFPDFDocInterop@@QAEJJ@Z
_TEXT	SEGMENT
?SetSearchPage@AFPDFDocInterop@@QAEJJ@Z PROC		; AFPDFDocInterop::SetSearchPage, COMDAT
; _this$ = eax
; _lNewValue$ = edx

; 122  : 	return ((AFPDFDoc *)_ptr)->SetSearchPage(lNewValue);

	mov	ecx, DWORD PTR [eax+4]
	mov	DWORD PTR [ecx+512], edx
	xor	eax, eax

; 123  : }

	ret	0
?SetSearchPage@AFPDFDocInterop@@QAEJJ@Z ENDP		; AFPDFDocInterop::SetSearchPage
_TEXT	ENDS
PUBLIC	?GetSearchPage@AFPDFDocInterop@@QAEJXZ		; AFPDFDocInterop::GetSearchPage
; Function compile flags: /Ogtpy
;	COMDAT ?GetSearchPage@AFPDFDocInterop@@QAEJXZ
_TEXT	SEGMENT
?GetSearchPage@AFPDFDocInterop@@QAEJXZ PROC		; AFPDFDocInterop::GetSearchPage, COMDAT
; _this$ = eax

; 119  : 	return ((AFPDFDoc *)_ptr)->GetSearchPage();

	mov	ecx, DWORD PTR [eax+4]
	mov	eax, DWORD PTR [ecx+512]

; 120  : }

	ret	0
?GetSearchPage@AFPDFDocInterop@@QAEJXZ ENDP		; AFPDFDocInterop::GetSearchPage
_TEXT	ENDS
PUBLIC	?GetPDFVersion@AFPDFDocInterop@@QAEPA_WXZ	; AFPDFDocInterop::GetPDFVersion
; Function compile flags: /Ogtpy
;	COMDAT ?GetPDFVersion@AFPDFDocInterop@@QAEPA_WXZ
_TEXT	SEGMENT
?GetPDFVersion@AFPDFDocInterop@@QAEPA_WXZ PROC		; AFPDFDocInterop::GetPDFVersion, COMDAT

; 101  : 	return ((AFPDFDoc *)_ptr)->GetPDFVersion();

	mov	eax, OFFSET _EmptyChar

; 102  : }

	ret	0
?GetPDFVersion@AFPDFDocInterop@@QAEPA_WXZ ENDP		; AFPDFDocInterop::GetPDFVersion
_TEXT	ENDS
PUBLIC	?SetRenderDPI@AFPDFDocInterop@@QAEXM@Z		; AFPDFDocInterop::SetRenderDPI
; Function compile flags: /Ogtpy
;	COMDAT ?SetRenderDPI@AFPDFDocInterop@@QAEXM@Z
_TEXT	SEGMENT
_newVal$ = 8						; size = 4
?SetRenderDPI@AFPDFDocInterop@@QAEXM@Z PROC		; AFPDFDocInterop::SetRenderDPI, COMDAT
; _this$ = ecx

; 98   : 	((AFPDFDoc *)_ptr)->SetRenderDPI(newVal);

	fld	DWORD PTR _newVal$[esp-4]
	mov	eax, DWORD PTR [ecx+4]
	fstp	QWORD PTR [eax+536]

; 99   : }

	ret	4
?SetRenderDPI@AFPDFDocInterop@@QAEXM@Z ENDP		; AFPDFDocInterop::SetRenderDPI
_TEXT	ENDS
PUBLIC	?GetRenderDPI@AFPDFDocInterop@@QAEMXZ		; AFPDFDocInterop::GetRenderDPI
; Function compile flags: /Ogtpy
;	COMDAT ?GetRenderDPI@AFPDFDocInterop@@QAEMXZ
_TEXT	SEGMENT
tv133 = -4						; size = 4
?GetRenderDPI@AFPDFDocInterop@@QAEMXZ PROC		; AFPDFDocInterop::GetRenderDPI, COMDAT
; _this$ = ecx

; 94   : {

	push	ecx

; 95   : 	return ((AFPDFDoc *)_ptr)->GetRenderDPI();

	mov	eax, DWORD PTR [ecx+4]
	fld	QWORD PTR [eax+536]
	fstp	DWORD PTR tv133[esp+4]
	fld	DWORD PTR tv133[esp+4]

; 96   : }

	pop	ecx
	ret	0
?GetRenderDPI@AFPDFDocInterop@@QAEMXZ ENDP		; AFPDFDocInterop::GetRenderDPI
_TEXT	ENDS
PUBLIC	?GetPageHeight@AFPDFDocInterop@@QAEJXZ		; AFPDFDocInterop::GetPageHeight
; Function compile flags: /Ogtpy
;	COMDAT ?GetPageHeight@AFPDFDocInterop@@QAEJXZ
_TEXT	SEGMENT
?GetPageHeight@AFPDFDocInterop@@QAEJXZ PROC		; AFPDFDocInterop::GetPageHeight, COMDAT
; _this$ = ecx

; 78   : 	return ((AFPDFDoc *)_ptr)->GetPageHeight();

	mov	eax, DWORD PTR [ecx+4]
	mov	eax, DWORD PTR [eax+516]

; 79   : }

	ret	0
?GetPageHeight@AFPDFDocInterop@@QAEJXZ ENDP		; AFPDFDocInterop::GetPageHeight
_TEXT	ENDS
PUBLIC	?GetPageWidth@AFPDFDocInterop@@QAEJXZ		; AFPDFDocInterop::GetPageWidth
; Function compile flags: /Ogtpy
;	COMDAT ?GetPageWidth@AFPDFDocInterop@@QAEJXZ
_TEXT	SEGMENT
?GetPageWidth@AFPDFDocInterop@@QAEJXZ PROC		; AFPDFDocInterop::GetPageWidth, COMDAT
; _this$ = ecx

; 75   : 	return ((AFPDFDoc *)_ptr)->GetPageWidth();

	mov	eax, DWORD PTR [ecx+4]
	mov	eax, DWORD PTR [eax+520]

; 76   : }

	ret	0
?GetPageWidth@AFPDFDocInterop@@QAEJXZ ENDP		; AFPDFDocInterop::GetPageWidth
_TEXT	ENDS
PUBLIC	?SetCurrentPage@AFPDFDocInterop@@QAEXJ@Z	; AFPDFDocInterop::SetCurrentPage
; Function compile flags: /Ogtpy
;	COMDAT ?SetCurrentPage@AFPDFDocInterop@@QAEXJ@Z
_TEXT	SEGMENT
_newVal$ = 8						; size = 4
?SetCurrentPage@AFPDFDocInterop@@QAEXJ@Z PROC		; AFPDFDocInterop::SetCurrentPage, COMDAT
; _this$ = ecx

; 62   : 	return ((AFPDFDoc *)_ptr)->SetCurrentPage(newVal);

	mov	eax, DWORD PTR [ecx+4]
	mov	ecx, DWORD PTR _newVal$[esp-4]
	mov	DWORD PTR [eax+504], ecx

; 63   : }

	ret	4
?SetCurrentPage@AFPDFDocInterop@@QAEXJ@Z ENDP		; AFPDFDocInterop::SetCurrentPage
_TEXT	ENDS
PUBLIC	?GetCurrentPage@AFPDFDocInterop@@QAEJXZ		; AFPDFDocInterop::GetCurrentPage
; Function compile flags: /Ogtpy
;	COMDAT ?GetCurrentPage@AFPDFDocInterop@@QAEJXZ
_TEXT	SEGMENT
?GetCurrentPage@AFPDFDocInterop@@QAEJXZ PROC		; AFPDFDocInterop::GetCurrentPage, COMDAT
; _this$ = ecx

; 59   : 	return ((AFPDFDoc *)_ptr)->GetCurrentPage();

	mov	eax, DWORD PTR [ecx+4]
	mov	eax, DWORD PTR [eax+504]

; 60   : }

	ret	0
?GetCurrentPage@AFPDFDocInterop@@QAEJXZ ENDP		; AFPDFDocInterop::GetCurrentPage
_TEXT	ENDS
PUBLIC	?ZoomOUT@AFPDFDocInterop@@QAEXXZ		; AFPDFDocInterop::ZoomOUT
; Function compile flags: /Ogtpy
;	COMDAT ?ZoomOUT@AFPDFDocInterop@@QAEXXZ
_TEXT	SEGMENT
?ZoomOUT@AFPDFDocInterop@@QAEXXZ PROC			; AFPDFDocInterop::ZoomOUT, COMDAT
; _this$ = ecx

; 55   : 	((AFPDFDoc *)_ptr)->ZoomOut();

	mov	eax, DWORD PTR [ecx+4]
	fld	QWORD PTR [eax+536]
	fmul	QWORD PTR __real@4008000000000000
	fmul	QWORD PTR __real@3fd0000000000000
	fstp	QWORD PTR [eax+536]

; 56   : }

	ret	0
?ZoomOUT@AFPDFDocInterop@@QAEXXZ ENDP			; AFPDFDocInterop::ZoomOUT
_TEXT	ENDS
PUBLIC	?ZoomIN@AFPDFDocInterop@@QAEXXZ			; AFPDFDocInterop::ZoomIN
; Function compile flags: /Ogtpy
;	COMDAT ?ZoomIN@AFPDFDocInterop@@QAEXXZ
_TEXT	SEGMENT
?ZoomIN@AFPDFDocInterop@@QAEXXZ PROC			; AFPDFDocInterop::ZoomIN, COMDAT
; _this$ = ecx

; 52   : 	((AFPDFDoc *)_ptr)->ZoomIN();

	mov	eax, DWORD PTR [ecx+4]
	fld	QWORD PTR [eax+536]
	fmul	QWORD PTR __real@4010000000000000
	fdiv	QWORD PTR __real@4008000000000000
	fstp	QWORD PTR [eax+536]

; 53   : }

	ret	0
?ZoomIN@AFPDFDocInterop@@QAEXXZ ENDP			; AFPDFDocInterop::ZoomIN
_TEXT	ENDS
PUBLIC	?SetCurrentY@AFPDFDocInterop@@QAEXJ@Z		; AFPDFDocInterop::SetCurrentY
; Function compile flags: /Ogtpy
;	COMDAT ?SetCurrentY@AFPDFDocInterop@@QAEXJ@Z
_TEXT	SEGMENT
_newVal$ = 8						; size = 4
?SetCurrentY@AFPDFDocInterop@@QAEXJ@Z PROC		; AFPDFDocInterop::SetCurrentY, COMDAT
; _this$ = ecx

; 49   : 	((AFPDFDoc *)_ptr)->SetCurrentY(newVal);

	mov	eax, DWORD PTR [ecx+4]
	mov	ecx, DWORD PTR _newVal$[esp-4]
	mov	DWORD PTR [eax+500], ecx

; 50   : }

	ret	4
?SetCurrentY@AFPDFDocInterop@@QAEXJ@Z ENDP		; AFPDFDocInterop::SetCurrentY
_TEXT	ENDS
PUBLIC	?GetCurrentY@AFPDFDocInterop@@QAEJXZ		; AFPDFDocInterop::GetCurrentY
; Function compile flags: /Ogtpy
;	COMDAT ?GetCurrentY@AFPDFDocInterop@@QAEJXZ
_TEXT	SEGMENT
?GetCurrentY@AFPDFDocInterop@@QAEJXZ PROC		; AFPDFDocInterop::GetCurrentY, COMDAT
; _this$ = ecx

; 46   : 	return ((AFPDFDoc *)_ptr)->GetCurrentY();

	mov	eax, DWORD PTR [ecx+4]
	mov	eax, DWORD PTR [eax+500]

; 47   : }

	ret	0
?GetCurrentY@AFPDFDocInterop@@QAEJXZ ENDP		; AFPDFDocInterop::GetCurrentY
_TEXT	ENDS
PUBLIC	?SetCurrentX@AFPDFDocInterop@@QAEXJ@Z		; AFPDFDocInterop::SetCurrentX
; Function compile flags: /Ogtpy
;	COMDAT ?SetCurrentX@AFPDFDocInterop@@QAEXJ@Z
_TEXT	SEGMENT
_newVal$ = 8						; size = 4
?SetCurrentX@AFPDFDocInterop@@QAEXJ@Z PROC		; AFPDFDocInterop::SetCurrentX, COMDAT
; _this$ = ecx

; 43   : 	((AFPDFDoc *)_ptr)->SetCurrentX(newVal);

	mov	eax, DWORD PTR [ecx+4]
	mov	ecx, DWORD PTR _newVal$[esp-4]
	mov	DWORD PTR [eax+496], ecx

; 44   : }

	ret	4
?SetCurrentX@AFPDFDocInterop@@QAEXJ@Z ENDP		; AFPDFDocInterop::SetCurrentX
_TEXT	ENDS
PUBLIC	?GetCurrentX@AFPDFDocInterop@@QAEJXZ		; AFPDFDocInterop::GetCurrentX
; Function compile flags: /Ogtpy
;	COMDAT ?GetCurrentX@AFPDFDocInterop@@QAEJXZ
_TEXT	SEGMENT
?GetCurrentX@AFPDFDocInterop@@QAEJXZ PROC		; AFPDFDocInterop::GetCurrentX, COMDAT
; _this$ = ecx

; 40   : 	return ((AFPDFDoc *)_ptr)->GetCurrentX();

	mov	eax, DWORD PTR [ecx+4]
	mov	eax, DWORD PTR [eax+496]

; 41   : }

	ret	0
?GetCurrentX@AFPDFDocInterop@@QAEJXZ ENDP		; AFPDFDocInterop::GetCurrentX
_TEXT	ENDS
PUBLIC	??1AFPDFDocInterop@@UAE@XZ			; AFPDFDocInterop::~AFPDFDocInterop
; Function compile flags: /Ogtpy
;	COMDAT ??1AFPDFDocInterop@@UAE@XZ
_TEXT	SEGMENT
??1AFPDFDocInterop@@UAE@XZ PROC				; AFPDFDocInterop::~AFPDFDocInterop, COMDAT
; _this$ = ecx

; 11   : AFPDFDocInterop::~AFPDFDocInterop(){

	push	esi
	mov	esi, ecx

; 12   : 	if(_ptr>0)

	mov	eax, DWORD PTR [esi+4]
	mov	DWORD PTR [esi], OFFSET ??_7AFPDFDocInterop@@6B@
	test	eax, eax
	jbe	SHORT $LN2@AFPDFDocIn

; 13   : 		delete _ptr;

	push	eax
	call	??3@YAXPAX@Z				; operator delete
	add	esp, 4
$LN2@AFPDFDocIn:

; 14   : 	_ptr=0;

	mov	DWORD PTR [esi+4], 0

; 15   : 	if(_resultsPtr!=0)

	mov	esi, DWORD PTR [esi+8]
	test	esi, esi
	je	SHORT $LN1@AFPDFDocIn

; 16   : 		free(_resultsPtr);

	push	esi
	call	DWORD PTR __imp__free
	add	esp, 4
$LN1@AFPDFDocIn:
	pop	esi

; 17   : }

	ret	0
??1AFPDFDocInterop@@UAE@XZ ENDP				; AFPDFDocInterop::~AFPDFDocInterop
; Function compile flags: /Ogtpy
_TEXT	ENDS
;	COMDAT ??_GAFPDFDocInterop@@UAEPAXI@Z
_TEXT	SEGMENT
___flags$ = 8						; size = 4
??_GAFPDFDocInterop@@UAEPAXI@Z PROC			; AFPDFDocInterop::`scalar deleting destructor', COMDAT
; _this$ = ecx
	push	esi
	mov	esi, ecx
	mov	eax, DWORD PTR [esi+4]
	mov	DWORD PTR [esi], OFFSET ??_7AFPDFDocInterop@@6B@
	test	eax, eax
	jbe	SHORT $LN5@scalar@5
	push	eax
	call	??3@YAXPAX@Z				; operator delete
	add	esp, 4
$LN5@scalar@5:
	mov	eax, DWORD PTR [esi+8]
	mov	DWORD PTR [esi+4], 0
	test	eax, eax
	je	SHORT $LN4@scalar@5
	push	eax
	call	DWORD PTR __imp__free
	add	esp, 4
$LN4@scalar@5:
	test	BYTE PTR ___flags$[esp], 1
	je	SHORT $LN10@scalar@5
	push	esi
	call	??3@YAXPAX@Z				; operator delete
	add	esp, 4
$LN10@scalar@5:
	mov	eax, esi
	pop	esi
	ret	4
??_GAFPDFDocInterop@@UAEPAXI@Z ENDP			; AFPDFDocInterop::`scalar deleting destructor'
; Function compile flags: /Ogtpy
; File c:\cygwin\home\uejima\pdflibnet\libafpdflib\afpdfdoc.h
_TEXT	ENDS
;	COMDAT ?SetUseMuPDF@AFPDFDoc@@QAEX_N@Z
_TEXT	SEGMENT
?SetUseMuPDF@AFPDFDoc@@QAEX_N@Z PROC			; AFPDFDoc::SetUseMuPDF, COMDAT
; _this$ = eax
; _buse$ = ecx

; 239  : 		#ifdef _MUPDF
; 240  : 			_useMuPDF =buse;

	mov	BYTE PTR [eax+154], cl

; 241  : 			//InvalidateBitmapCache();
; 242  : 		#endif
; 243  : 	}

	ret	0
?SetUseMuPDF@AFPDFDoc@@QAEX_N@Z ENDP			; AFPDFDoc::SetUseMuPDF
; Function compile flags: /Ogtpy
_TEXT	ENDS
;	COMDAT ?GetUseMuPDF@AFPDFDoc@@QAE_NXZ
_TEXT	SEGMENT
?GetUseMuPDF@AFPDFDoc@@QAE_NXZ PROC			; AFPDFDoc::GetUseMuPDF, COMDAT
; _this$ = eax

; 233  : 		#ifndef _MUPDF
; 234  : 			return false;
; 235  : 		#endif
; 236  : 		return _useMuPDF;

	mov	al, BYTE PTR [eax+154]

; 237  : 	}

	ret	0
?GetUseMuPDF@AFPDFDoc@@QAE_NXZ ENDP			; AFPDFDoc::GetUseMuPDF
; Function compile flags: /Ogtpy
_TEXT	ENDS
;	COMDAT ?SetViewHeight@AFPDFDoc@@QAEXJ@Z
_TEXT	SEGMENT
?SetViewHeight@AFPDFDoc@@QAEXJ@Z PROC			; AFPDFDoc::SetViewHeight, COMDAT
; _this$ = eax
; _newVal$ = ecx

; 156  : 	void SetViewHeight(long newVal) { m_ViewHeight=newVal; }

	mov	DWORD PTR [eax+484], ecx
	ret	0
?SetViewHeight@AFPDFDoc@@QAEXJ@Z ENDP			; AFPDFDoc::SetViewHeight
; Function compile flags: /Ogtpy
_TEXT	ENDS
;	COMDAT ?GetViewHeight@AFPDFDoc@@QAEJXZ
_TEXT	SEGMENT
?GetViewHeight@AFPDFDoc@@QAEJXZ PROC			; AFPDFDoc::GetViewHeight, COMDAT
; _this$ = eax

; 155  : 	long GetViewHeight() { return m_ViewHeight; }

	mov	eax, DWORD PTR [eax+484]
	ret	0
?GetViewHeight@AFPDFDoc@@QAEJXZ ENDP			; AFPDFDoc::GetViewHeight
; Function compile flags: /Ogtpy
_TEXT	ENDS
;	COMDAT ?SetViewWidth@AFPDFDoc@@QAEXJ@Z
_TEXT	SEGMENT
?SetViewWidth@AFPDFDoc@@QAEXJ@Z PROC			; AFPDFDoc::SetViewWidth, COMDAT
; _this$ = eax
; _newVal$ = ecx

; 154  : 	void SetViewWidth(long newVal) { m_ViewWidth =newVal; }

	mov	DWORD PTR [eax+480], ecx
	ret	0
?SetViewWidth@AFPDFDoc@@QAEXJ@Z ENDP			; AFPDFDoc::SetViewWidth
; Function compile flags: /Ogtpy
_TEXT	ENDS
;	COMDAT ?GetViewWidth@AFPDFDoc@@QAEJXZ
_TEXT	SEGMENT
?GetViewWidth@AFPDFDoc@@QAEJXZ PROC			; AFPDFDoc::GetViewWidth, COMDAT
; _this$ = eax

; 153  : 	long GetViewWidth() { return m_ViewWidth; }

	mov	eax, DWORD PTR [eax+480]
	ret	0
?GetViewWidth@AFPDFDoc@@QAEJXZ ENDP			; AFPDFDoc::GetViewWidth
; Function compile flags: /Ogtpy
_TEXT	ENDS
;	COMDAT ?SetViewY@AFPDFDoc@@QAEXJ@Z
_TEXT	SEGMENT
?SetViewY@AFPDFDoc@@QAEXJ@Z PROC			; AFPDFDoc::SetViewY, COMDAT
; _this$ = eax
; _newVal$ = ecx

; 151  : 	void SetViewY(long newVal){ m_ViewY =newVal; }

	mov	DWORD PTR [eax+492], ecx
	ret	0
?SetViewY@AFPDFDoc@@QAEXJ@Z ENDP			; AFPDFDoc::SetViewY
; Function compile flags: /Ogtpy
_TEXT	ENDS
;	COMDAT ?GetViewY@AFPDFDoc@@QAEJXZ
_TEXT	SEGMENT
?GetViewY@AFPDFDoc@@QAEJXZ PROC				; AFPDFDoc::GetViewY, COMDAT
; _this$ = eax

; 150  : 	long GetViewY(){ return m_ViewY; }

	mov	eax, DWORD PTR [eax+492]
	ret	0
?GetViewY@AFPDFDoc@@QAEJXZ ENDP				; AFPDFDoc::GetViewY
; Function compile flags: /Ogtpy
_TEXT	ENDS
;	COMDAT ?SetViewX@AFPDFDoc@@QAEXJ@Z
_TEXT	SEGMENT
?SetViewX@AFPDFDoc@@QAEXJ@Z PROC			; AFPDFDoc::SetViewX, COMDAT
; _this$ = eax
; _newVal$ = ecx

; 149  : 	void SetViewX(long newVal){ m_ViewX =newVal; }

	mov	DWORD PTR [eax+488], ecx
	ret	0
?SetViewX@AFPDFDoc@@QAEXJ@Z ENDP			; AFPDFDoc::SetViewX
; Function compile flags: /Ogtpy
_TEXT	ENDS
;	COMDAT ?GetViewX@AFPDFDoc@@QAEJXZ
_TEXT	SEGMENT
?GetViewX@AFPDFDoc@@QAEJXZ PROC				; AFPDFDoc::GetViewX, COMDAT
; _this$ = eax

; 148  : 	long GetViewX(){ return m_ViewX; }

	mov	eax, DWORD PTR [eax+488]
	ret	0
?GetViewX@AFPDFDoc@@QAEJXZ ENDP				; AFPDFDoc::GetViewX
; Function compile flags: /Ogtpy
_TEXT	ENDS
;	COMDAT ?getDoc@AFPDFDoc@@QAEPAVPDFDoc@@XZ
_TEXT	SEGMENT
?getDoc@AFPDFDoc@@QAEPAVPDFDoc@@XZ PROC			; AFPDFDoc::getDoc, COMDAT
; _this$ = eax

; 123  : 		return m_PDFDoc;

	mov	eax, DWORD PTR [eax+332]

; 124  : 	}

	ret	0
?getDoc@AFPDFDoc@@QAEPAVPDFDoc@@XZ ENDP			; AFPDFDoc::getDoc
; Function compile flags: /Ogtpy
; File c:\cygwin\home\uejima\pdflibnet\xpdfwin\xpdf\pdfdoc.h
_TEXT	ENDS
;	COMDAT ?findPage@PDFDoc@@QAEHHH@Z
_TEXT	SEGMENT
?findPage@PDFDoc@@QAEHHH@Z PROC				; PDFDoc::findPage, COMDAT
; _this$ = edx
; _num$ = ecx
; _gen$ = eax

; 112  :   int findPage(int num, int gen) { return catalog->findPage(num, gen); }

	push	eax
	push	ecx
	mov	ecx, DWORD PTR [edx+28]
	call	?findPage@Catalog@@QAEHHH@Z		; Catalog::findPage
	ret	0
?findPage@PDFDoc@@QAEHHH@Z ENDP				; PDFDoc::findPage
; Function compile flags: /Ogtpy
_TEXT	ENDS
;	COMDAT ?getCatalog@PDFDoc@@QAEPAVCatalog@@XZ
_TEXT	SEGMENT
?getCatalog@PDFDoc@@QAEPAVCatalog@@XZ PROC		; PDFDoc::getCatalog, COMDAT
; _this$ = eax

; 61   :   Catalog *getCatalog() { return catalog; }

	mov	eax, DWORD PTR [eax+28]
	ret	0
?getCatalog@PDFDoc@@QAEPAVCatalog@@XZ ENDP		; PDFDoc::getCatalog
; Function compile flags: /Ogtpy
; File c:\cygwin\home\uejima\pdflibnet\xpdfwin\xpdf\catalog.h
_TEXT	ENDS
;	COMDAT ?getPage@Catalog@@QAEPAVPage@@H@Z
_TEXT	SEGMENT
?getPage@Catalog@@QAEPAVPage@@H@Z PROC			; Catalog::getPage, COMDAT
; _this$ = eax
; _i$ = edx

; 45   :   Page *getPage(int i) { return pages[i-1]; }

	mov	ecx, DWORD PTR [eax+4]
	mov	eax, DWORD PTR [ecx+edx*4-4]
	ret	0
?getPage@Catalog@@QAEPAVPage@@H@Z ENDP			; Catalog::getPage
; Function compile flags: /Ogtpy
; File c:\cygwin\home\uejima\pdflibnet\xpdfwin\goo\gstring.h
_TEXT	ENDS
;	COMDAT ?getLength@GString@@QAEHXZ
_TEXT	SEGMENT
?getLength@GString@@QAEHXZ PROC				; GString::getLength, COMDAT
; _this$ = eax

; 77   :   int getLength() { return length; }

	mov	eax, DWORD PTR [eax]
	ret	0
?getLength@GString@@QAEHXZ ENDP				; GString::getLength
PUBLIC	?SetUseMuPDF@AFPDFDocInterop@@QAEX_N@Z		; AFPDFDocInterop::SetUseMuPDF
; Function compile flags: /Ogtpy
; File c:\cygwin\home\uejima\pdflibnet\libafpdflib\afpdfdocinterop.cpp
;	COMDAT ?SetUseMuPDF@AFPDFDocInterop@@QAEX_N@Z
_TEXT	SEGMENT
_bUse$ = 8						; size = 1
?SetUseMuPDF@AFPDFDocInterop@@QAEX_N@Z PROC		; AFPDFDocInterop::SetUseMuPDF, COMDAT
; _this$ = ecx

; 313  : 		AFPDFDoc *doc =((AFPDFDoc *)_ptr);
; 314  : 		doc->SetUseMuPDF(bUse);

	mov	eax, DWORD PTR [ecx+4]
	mov	cl, BYTE PTR _bUse$[esp-4]
	mov	BYTE PTR [eax+154], cl

; 315  : 	}

	ret	4
?SetUseMuPDF@AFPDFDocInterop@@QAEX_N@Z ENDP		; AFPDFDocInterop::SetUseMuPDF
_TEXT	ENDS
PUBLIC	?GetUseMuPDF@AFPDFDocInterop@@QAE_NXZ		; AFPDFDocInterop::GetUseMuPDF
; Function compile flags: /Ogtpy
;	COMDAT ?GetUseMuPDF@AFPDFDocInterop@@QAE_NXZ
_TEXT	SEGMENT
?GetUseMuPDF@AFPDFDocInterop@@QAE_NXZ PROC		; AFPDFDocInterop::GetUseMuPDF, COMDAT
; _this$ = ecx

; 308  : 		AFPDFDoc *doc =((AFPDFDoc *)_ptr);
; 309  : 		return doc->GetUseMuPDF();

	mov	eax, DWORD PTR [ecx+4]
	mov	al, BYTE PTR [eax+154]

; 310  : 	}

	ret	0
?GetUseMuPDF@AFPDFDocInterop@@QAE_NXZ ENDP		; AFPDFDocInterop::GetUseMuPDF
_TEXT	ENDS
PUBLIC	?ThumbInQueue@AFPDFDocInterop@@QAE_NH@Z		; AFPDFDocInterop::ThumbInQueue
; Function compile flags: /Ogtpy
;	COMDAT ?ThumbInQueue@AFPDFDocInterop@@QAE_NH@Z
_TEXT	SEGMENT
?ThumbInQueue@AFPDFDocInterop@@QAE_NH@Z PROC		; AFPDFDocInterop::ThumbInQueue, COMDAT
; _this$ = eax
; _page$ = ebx

; 297  : 		AFPDFDoc *doc =((AFPDFDoc *)_ptr);

	mov	eax, DWORD PTR [eax+4]

; 298  : 		return doc->ThumbInQueue(page);

	jmp	?ThumbInQueue@AFPDFDoc@@QAE_NH@Z	; AFPDFDoc::ThumbInQueue
?ThumbInQueue@AFPDFDocInterop@@QAE_NH@Z ENDP		; AFPDFDocInterop::ThumbInQueue
_TEXT	ENDS
PUBLIC	?getPage@AFPDFDocInterop@@QAEPAVPDFPageInterop@@H@Z ; AFPDFDocInterop::getPage
;	COMDAT xdata$x
; File c:\cygwin\home\uejima\pdflibnet\xpdfwin\xpdf\catalog.h
xdata$x	SEGMENT
__unwindtable$?getPage@AFPDFDocInterop@@QAEPAVPDFPageInterop@@H@Z DD 0ffffffffH
	DD	FLAT:__unwindfunclet$?getPage@AFPDFDocInterop@@QAEPAVPDFPageInterop@@H@Z$0
__ehfuncinfo$?getPage@AFPDFDocInterop@@QAEPAVPDFPageInterop@@H@Z DD 019930522H
	DD	01H
	DD	FLAT:__unwindtable$?getPage@AFPDFDocInterop@@QAEPAVPDFPageInterop@@H@Z
	DD	2 DUP(00H)
	DD	2 DUP(00H)
	DD	00H
	DD	01H
; Function compile flags: /Ogtpy
; File c:\cygwin\home\uejima\pdflibnet\libafpdflib\afpdfdocinterop.cpp
xdata$x	ENDS
;	COMDAT ?getPage@AFPDFDocInterop@@QAEPAVPDFPageInterop@@H@Z
_TEXT	SEGMENT
__$EHRec$ = -12						; size = 12
$T169192 = 8						; size = 4
_page$ = 8						; size = 4
?getPage@AFPDFDocInterop@@QAEPAVPDFPageInterop@@H@Z PROC ; AFPDFDocInterop::getPage, COMDAT
; _this$ = ecx

; 282  : 	PDFPageInterop *AFPDFDocInterop::getPage(int page){

	push	-1
	push	__ehhandler$?getPage@AFPDFDocInterop@@QAEPAVPDFPageInterop@@H@Z
	mov	eax, DWORD PTR fs:0
	push	eax
	push	ebx
	push	ebp
	push	esi
	push	edi
	mov	eax, DWORD PTR ___security_cookie
	xor	eax, esp
	push	eax
	lea	eax, DWORD PTR __$EHRec$[esp+32]
	mov	DWORD PTR fs:0, eax
	mov	edi, ecx

; 283  : 		AFPDFDoc *doc =((AFPDFDoc *)_ptr);

	mov	eax, DWORD PTR [edi+4]

; 284  : 		Page * p = doc->getDoc()->getCatalog()->getPage(page);

	mov	eax, DWORD PTR [eax+332]
	mov	eax, DWORD PTR [eax+28]
	mov	eax, DWORD PTR [eax+4]
	mov	ebp, DWORD PTR _page$[esp+28]
	mov	ebx, DWORD PTR [eax+ebp*4-4]

; 285  : 		if(p)

	test	ebx, ebx
	je	SHORT $LN1@getPage

; 286  : 			return new PDFPageInterop(page,(void *)p,(void *)_ptr);

	push	96					; 00000060H
	call	??2@YAPAXI@Z				; operator new
	add	esp, 4
	mov	DWORD PTR $T169192[esp+28], eax
	mov	DWORD PTR __$EHRec$[esp+40], 0
	test	eax, eax
	je	SHORT $LN1@getPage
	mov	ecx, DWORD PTR [edi+4]
	push	ecx
	push	ebp
	mov	ecx, ebx
	mov	esi, eax
	call	??0PDFPageInterop@@QAE@HPAX0@Z		; PDFPageInterop::PDFPageInterop
	jmp	SHORT $LN2@getPage
$LN1@getPage:

; 287  : 		return 0;

	xor	eax, eax
$LN2@getPage:

; 288  : 	}

	mov	ecx, DWORD PTR __$EHRec$[esp+32]
	mov	DWORD PTR fs:0, ecx
	pop	ecx
	pop	edi
	pop	esi
	pop	ebp
	pop	ebx
	add	esp, 12					; 0000000cH
	ret	4
_TEXT	ENDS
;	COMDAT text$x
text$x	SEGMENT
__unwindfunclet$?getPage@AFPDFDocInterop@@QAEPAVPDFPageInterop@@H@Z$0:
	mov	eax, DWORD PTR $T169192[ebp-4]
	push	eax
	call	??3@YAXPAX@Z				; operator delete
	pop	ecx
	ret	0
__ehhandler$?getPage@AFPDFDocInterop@@QAEPAVPDFPageInterop@@H@Z:
	mov	edx, DWORD PTR [esp+8]
	lea	eax, DWORD PTR [edx-16]
	mov	ecx, DWORD PTR [edx-20]
	xor	ecx, eax
	call	@__security_check_cookie@4
	mov	eax, OFFSET __ehfuncinfo$?getPage@AFPDFDocInterop@@QAEPAVPDFPageInterop@@H@Z
	jmp	___CxxFrameHandler3
text$x	ENDS
?getPage@AFPDFDocInterop@@QAEPAVPDFPageInterop@@H@Z ENDP ; AFPDFDocInterop::getPage
PUBLIC	?SetViewY@AFPDFDocInterop@@QAEXJ@Z		; AFPDFDocInterop::SetViewY
; Function compile flags: /Ogtpy
;	COMDAT ?SetViewY@AFPDFDocInterop@@QAEXJ@Z
_TEXT	SEGMENT
_newVal$ = 8						; size = 4
?SetViewY@AFPDFDocInterop@@QAEXJ@Z PROC			; AFPDFDocInterop::SetViewY, COMDAT
; _this$ = ecx

; 239  : 		((AFPDFDoc *)_ptr)->SetViewY(newVal);

	mov	eax, DWORD PTR [ecx+4]
	mov	ecx, DWORD PTR _newVal$[esp-4]
	mov	DWORD PTR [eax+492], ecx

; 240  : 	}

	ret	4
?SetViewY@AFPDFDocInterop@@QAEXJ@Z ENDP			; AFPDFDocInterop::SetViewY
_TEXT	ENDS
PUBLIC	?GetViewY@AFPDFDocInterop@@QAEJXZ		; AFPDFDocInterop::GetViewY
; Function compile flags: /Ogtpy
;	COMDAT ?GetViewY@AFPDFDocInterop@@QAEJXZ
_TEXT	SEGMENT
?GetViewY@AFPDFDocInterop@@QAEJXZ PROC			; AFPDFDocInterop::GetViewY, COMDAT
; _this$ = ecx

; 236  : 		return ((AFPDFDoc *)_ptr)->GetViewY();

	mov	eax, DWORD PTR [ecx+4]
	mov	eax, DWORD PTR [eax+492]

; 237  : 	}

	ret	0
?GetViewY@AFPDFDocInterop@@QAEJXZ ENDP			; AFPDFDocInterop::GetViewY
_TEXT	ENDS
PUBLIC	?SetViewX@AFPDFDocInterop@@QAEXJ@Z		; AFPDFDocInterop::SetViewX
; Function compile flags: /Ogtpy
;	COMDAT ?SetViewX@AFPDFDocInterop@@QAEXJ@Z
_TEXT	SEGMENT
_newVal$ = 8						; size = 4
?SetViewX@AFPDFDocInterop@@QAEXJ@Z PROC			; AFPDFDocInterop::SetViewX, COMDAT
; _this$ = ecx

; 233  : 		((AFPDFDoc *)_ptr)->SetViewX(newVal);

	mov	eax, DWORD PTR [ecx+4]
	mov	ecx, DWORD PTR _newVal$[esp-4]
	mov	DWORD PTR [eax+488], ecx

; 234  : 	}

	ret	4
?SetViewX@AFPDFDocInterop@@QAEXJ@Z ENDP			; AFPDFDocInterop::SetViewX
_TEXT	ENDS
PUBLIC	?GetViewX@AFPDFDocInterop@@QAEJXZ		; AFPDFDocInterop::GetViewX
; Function compile flags: /Ogtpy
;	COMDAT ?GetViewX@AFPDFDocInterop@@QAEJXZ
_TEXT	SEGMENT
?GetViewX@AFPDFDocInterop@@QAEJXZ PROC			; AFPDFDocInterop::GetViewX, COMDAT
; _this$ = ecx

; 230  : 		return ((AFPDFDoc *)_ptr)->GetViewX();

	mov	eax, DWORD PTR [ecx+4]
	mov	eax, DWORD PTR [eax+488]

; 231  : 	}

	ret	0
?GetViewX@AFPDFDocInterop@@QAEJXZ ENDP			; AFPDFDocInterop::GetViewX
_TEXT	ENDS
PUBLIC	?SetViewHeight@AFPDFDocInterop@@QAEXJ@Z		; AFPDFDocInterop::SetViewHeight
; Function compile flags: /Ogtpy
;	COMDAT ?SetViewHeight@AFPDFDocInterop@@QAEXJ@Z
_TEXT	SEGMENT
_newVal$ = 8						; size = 4
?SetViewHeight@AFPDFDocInterop@@QAEXJ@Z PROC		; AFPDFDocInterop::SetViewHeight, COMDAT
; _this$ = ecx

; 226  : 		((AFPDFDoc *)_ptr)->SetViewHeight(newVal);

	mov	eax, DWORD PTR [ecx+4]
	mov	ecx, DWORD PTR _newVal$[esp-4]
	mov	DWORD PTR [eax+484], ecx

; 227  : 	}

	ret	4
?SetViewHeight@AFPDFDocInterop@@QAEXJ@Z ENDP		; AFPDFDocInterop::SetViewHeight
_TEXT	ENDS
PUBLIC	?SetViewWidth@AFPDFDocInterop@@QAEXJ@Z		; AFPDFDocInterop::SetViewWidth
; Function compile flags: /Ogtpy
;	COMDAT ?SetViewWidth@AFPDFDocInterop@@QAEXJ@Z
_TEXT	SEGMENT
_newVal$ = 8						; size = 4
?SetViewWidth@AFPDFDocInterop@@QAEXJ@Z PROC		; AFPDFDocInterop::SetViewWidth, COMDAT
; _this$ = ecx

; 223  : 		((AFPDFDoc *)_ptr)->SetViewWidth(newVal);

	mov	eax, DWORD PTR [ecx+4]
	mov	ecx, DWORD PTR _newVal$[esp-4]
	mov	DWORD PTR [eax+480], ecx

; 224  : 	}

	ret	4
?SetViewWidth@AFPDFDocInterop@@QAEXJ@Z ENDP		; AFPDFDocInterop::SetViewWidth
_TEXT	ENDS
PUBLIC	?GetViewHeight@AFPDFDocInterop@@QAEJXZ		; AFPDFDocInterop::GetViewHeight
; Function compile flags: /Ogtpy
;	COMDAT ?GetViewHeight@AFPDFDocInterop@@QAEJXZ
_TEXT	SEGMENT
?GetViewHeight@AFPDFDocInterop@@QAEJXZ PROC		; AFPDFDocInterop::GetViewHeight, COMDAT
; _this$ = ecx

; 220  : 		return ((AFPDFDoc *)_ptr)->GetViewHeight();

	mov	eax, DWORD PTR [ecx+4]
	mov	eax, DWORD PTR [eax+484]

; 221  : 	}

	ret	0
?GetViewHeight@AFPDFDocInterop@@QAEJXZ ENDP		; AFPDFDocInterop::GetViewHeight
_TEXT	ENDS
PUBLIC	?GetViewWidth@AFPDFDocInterop@@QAEJXZ		; AFPDFDocInterop::GetViewWidth
; Function compile flags: /Ogtpy
;	COMDAT ?GetViewWidth@AFPDFDocInterop@@QAEJXZ
_TEXT	SEGMENT
?GetViewWidth@AFPDFDocInterop@@QAEJXZ PROC		; AFPDFDocInterop::GetViewWidth, COMDAT
; _this$ = ecx

; 217  : 		return ((AFPDFDoc *)_ptr)->GetViewWidth();

	mov	eax, DWORD PTR [ecx+4]
	mov	eax, DWORD PTR [eax+480]

; 218  : 	}

	ret	0
?GetViewWidth@AFPDFDocInterop@@QAEJXZ ENDP		; AFPDFDocInterop::GetViewWidth
_TEXT	ENDS
PUBLIC	?RenderHDC@AFPDFDocInterop@@QAEJJ@Z		; AFPDFDocInterop::RenderHDC
; Function compile flags: /Ogtpy
;	COMDAT ?RenderHDC@AFPDFDocInterop@@QAEJJ@Z
_TEXT	SEGMENT
_lHdc$ = 8						; size = 4
?RenderHDC@AFPDFDocInterop@@QAEJJ@Z PROC		; AFPDFDocInterop::RenderHDC, COMDAT
; _this$ = ecx

; 116  : 	return ((AFPDFDoc *)_ptr)->RenderHDC(lHdc);

	mov	eax, DWORD PTR _lHdc$[esp-4]
	mov	ecx, DWORD PTR [ecx+4]
	push	eax
	push	ecx
	call	?RenderHDC@AFPDFDoc@@QAEJJ@Z		; AFPDFDoc::RenderHDC

; 117  : }

	ret	4
?RenderHDC@AFPDFDocInterop@@QAEJJ@Z ENDP		; AFPDFDocInterop::RenderHDC
_TEXT	ENDS
PUBLIC	?GetOutlinePtr@AFPDFDocInterop@@QAEJJ@Z		; AFPDFDocInterop::GetOutlinePtr
; Function compile flags: /Ogtpy
;	COMDAT ?GetOutlinePtr@AFPDFDocInterop@@QAEJJ@Z
_TEXT	SEGMENT
_iOutline$ = 8						; size = 4
?GetOutlinePtr@AFPDFDocInterop@@QAEJJ@Z PROC		; AFPDFDocInterop::GetOutlinePtr, COMDAT
; _this$ = ecx

; 85   : 	return ((AFPDFDoc *)_ptr)->GetOutlinePtr(iOutline);

	mov	ecx, DWORD PTR [ecx+4]
	mov	eax, DWORD PTR [ecx+348]
	test	eax, eax
	je	SHORT $LN3@GetOutline@3
	mov	eax, DWORD PTR [eax]
	test	eax, eax
	je	SHORT $LN3@GetOutline@3
	mov	ecx, DWORD PTR _iOutline$[esp-4]
	test	ecx, ecx
	jle	SHORT $LN3@GetOutline@3
	cmp	ecx, DWORD PTR [eax+8]
	jg	SHORT $LN3@GetOutline@3
	mov	eax, DWORD PTR [eax]
	mov	eax, DWORD PTR [eax+ecx*4-4]

; 86   : }

	ret	4

; 85   : 	return ((AFPDFDoc *)_ptr)->GetOutlinePtr(iOutline);

$LN3@GetOutline@3:
	xor	eax, eax

; 86   : }

	ret	4
?GetOutlinePtr@AFPDFDocInterop@@QAEJJ@Z ENDP		; AFPDFDocInterop::GetOutlinePtr
_TEXT	ENDS
PUBLIC	?GetOutlineCount@AFPDFDocInterop@@QAEJXZ	; AFPDFDocInterop::GetOutlineCount
; Function compile flags: /Ogtpy
;	COMDAT ?GetOutlineCount@AFPDFDocInterop@@QAEJXZ
_TEXT	SEGMENT
?GetOutlineCount@AFPDFDocInterop@@QAEJXZ PROC		; AFPDFDocInterop::GetOutlineCount, COMDAT
; _this$ = ecx

; 82   : 	return ((AFPDFDoc *)_ptr)->GetOutlineCount();

	mov	ecx, DWORD PTR [ecx+4]
	mov	eax, DWORD PTR [ecx+348]
	test	eax, eax
	je	SHORT $LN3@GetOutline@4
	mov	eax, DWORD PTR [eax]
	test	eax, eax
	je	SHORT $LN3@GetOutline@4
	mov	eax, DWORD PTR [eax+8]

; 83   : }

	ret	0

; 82   : 	return ((AFPDFDoc *)_ptr)->GetOutlineCount();

$LN3@GetOutline@4:
	xor	eax, eax

; 83   : }

	ret	0
?GetOutlineCount@AFPDFDocInterop@@QAEJXZ ENDP		; AFPDFDocInterop::GetOutlineCount
; Function compile flags: /Ogtpy
; File c:\cygwin\home\uejima\pdflibnet\libafpdflib\afpdfdoc.h
_TEXT	ENDS
;	COMDAT ?SupportsMuPDF@AFPDFDoc@@QAE_NXZ
_TEXT	SEGMENT
?SupportsMuPDF@AFPDFDoc@@QAE_NXZ PROC			; AFPDFDoc::SupportsMuPDF, COMDAT
; _this$ = eax

; 222  : #ifndef _MUPDF_H_
; 223  : 		return false;
; 224  : #else
; 225  : 		if(m_LastOpenedFile.getLength()==0 && this->m_LastOpenedStream!=0)

	cmp	DWORD PTR [eax+228], 0
	jne	SHORT $LN2@SupportsMu
	cmp	DWORD PTR [eax+236], 0
	je	SHORT $LN2@SupportsMu

; 226  : 			return false;

	xor	al, al

; 229  : #endif
; 230  : 	}

	ret	0
$LN2@SupportsMu:

; 227  : 		else
; 228  : 			return true;

	mov	al, 1

; 229  : #endif
; 230  : 	}

	ret	0
?SupportsMuPDF@AFPDFDoc@@QAE_NXZ ENDP			; AFPDFDoc::SupportsMuPDF
; Function compile flags: /Ogtpy
_TEXT	ENDS
;	COMDAT ?findpage@AFPDFDoc@@QAEHHH@Z
_TEXT	SEGMENT
?findpage@AFPDFDoc@@QAEHHH@Z PROC			; AFPDFDoc::findpage, COMDAT
; _this$ = eax
; _num$ = edx
; _gen$ = ecx

; 208  : 	int findpage(int num, int gen){ return m_PDFDoc->findPage(num,gen);	}

	mov	eax, DWORD PTR [eax+332]
	push	ecx
	mov	ecx, DWORD PTR [eax+28]
	push	edx
	call	?findPage@Catalog@@QAEHHH@Z		; Catalog::findPage
	ret	0
?findpage@AFPDFDoc@@QAEHHH@Z ENDP			; AFPDFDoc::findpage
PUBLIC	?GetSupportsMuPDF@AFPDFDocInterop@@QAE_NXZ	; AFPDFDocInterop::GetSupportsMuPDF
; Function compile flags: /Ogtpy
; File c:\cygwin\home\uejima\pdflibnet\libafpdflib\afpdfdocinterop.cpp
;	COMDAT ?GetSupportsMuPDF@AFPDFDocInterop@@QAE_NXZ
_TEXT	SEGMENT
?GetSupportsMuPDF@AFPDFDocInterop@@QAE_NXZ PROC		; AFPDFDocInterop::GetSupportsMuPDF, COMDAT
; _this$ = ecx

; 303  : 		AFPDFDoc *doc =((AFPDFDoc *)_ptr);

	mov	eax, DWORD PTR [ecx+4]

; 304  : 		return doc->SupportsMuPDF();

	cmp	DWORD PTR [eax+228], 0
	jne	SHORT $LN4@GetSupport
	cmp	DWORD PTR [eax+236], 0
	je	SHORT $LN4@GetSupport
	xor	al, al

; 305  : 	}

	ret	0

; 304  : 		return doc->SupportsMuPDF();

$LN4@GetSupport:
	mov	al, 1

; 305  : 	}

	ret	0
?GetSupportsMuPDF@AFPDFDocInterop@@QAE_NXZ ENDP		; AFPDFDocInterop::GetSupportsMuPDF
_TEXT	ENDS
PUBLIC	?findPage@AFPDFDocInterop@@QAEHHH@Z		; AFPDFDocInterop::findPage
; Function compile flags: /Ogtpy
;	COMDAT ?findPage@AFPDFDocInterop@@QAEHHH@Z
_TEXT	SEGMENT
_num$ = 8						; size = 4
?findPage@AFPDFDocInterop@@QAEHHH@Z PROC		; AFPDFDocInterop::findPage, COMDAT
; _this$ = eax
; _gen$ = edx

; 248  : 		return ((AFPDFDoc *)_ptr)->findpage(num,gen);

	mov	ecx, DWORD PTR [eax+4]
	mov	eax, DWORD PTR [ecx+332]
	mov	ecx, DWORD PTR _num$[esp-4]
	push	edx
	push	ecx
	mov	ecx, DWORD PTR [eax+28]
	call	?findPage@Catalog@@QAEHHH@Z		; Catalog::findPage

; 249  : 	}

	ret	4
?findPage@AFPDFDocInterop@@QAEHHH@Z ENDP		; AFPDFDocInterop::findPage
_TEXT	ENDS
PUBLIC	?PreviousPage@AFPDFDocInterop@@QAEXXZ		; AFPDFDocInterop::PreviousPage
; Function compile flags: /Ogtpy
;	COMDAT ?PreviousPage@AFPDFDocInterop@@QAEXXZ
_TEXT	SEGMENT
?PreviousPage@AFPDFDocInterop@@QAEXXZ PROC		; AFPDFDocInterop::PreviousPage, COMDAT
; _this$ = ecx

; 135  : 	((AFPDFDoc *)_ptr)->PreviousPage();

	mov	ecx, DWORD PTR [ecx+4]
	mov	edx, DWORD PTR [ecx+332]
	test	edx, edx
	je	SHORT $LN3@PreviousPa@2
	mov	eax, DWORD PTR [ecx+504]
	dec	eax
	cmp	eax, 1
	jl	SHORT $LN3@PreviousPa@2
	mov	edx, DWORD PTR [edx+28]
	cmp	eax, DWORD PTR [edx+12]
	jg	SHORT $LN3@PreviousPa@2
	mov	DWORD PTR [ecx+504], eax
$LN3@PreviousPa@2:

; 136  : }

	ret	0
?PreviousPage@AFPDFDocInterop@@QAEXXZ ENDP		; AFPDFDocInterop::PreviousPage
_TEXT	ENDS
PUBLIC	?NextPage@AFPDFDocInterop@@QAEXXZ		; AFPDFDocInterop::NextPage
; Function compile flags: /Ogtpy
;	COMDAT ?NextPage@AFPDFDocInterop@@QAEXXZ
_TEXT	SEGMENT
?NextPage@AFPDFDocInterop@@QAEXXZ PROC			; AFPDFDocInterop::NextPage, COMDAT
; _this$ = ecx

; 132  : 	((AFPDFDoc *)_ptr)->NextPage();

	mov	ecx, DWORD PTR [ecx+4]
	mov	edx, DWORD PTR [ecx+332]
	test	edx, edx
	je	SHORT $LN3@NextPage@2
	mov	eax, DWORD PTR [ecx+504]
	inc	eax
	cmp	eax, 1
	jl	SHORT $LN3@NextPage@2
	mov	edx, DWORD PTR [edx+28]
	cmp	eax, DWORD PTR [edx+12]
	jg	SHORT $LN3@NextPage@2
	mov	DWORD PTR [ecx+504], eax
$LN3@NextPage@2:

; 133  : }

	ret	0
?NextPage@AFPDFDocInterop@@QAEXXZ ENDP			; AFPDFDocInterop::NextPage
_TEXT	ENDS
PUBLIC	?GetPageCount@AFPDFDocInterop@@QAEJXZ		; AFPDFDocInterop::GetPageCount
; Function compile flags: /Ogtpy
;	COMDAT ?GetPageCount@AFPDFDocInterop@@QAEJXZ
_TEXT	SEGMENT
?GetPageCount@AFPDFDocInterop@@QAEJXZ PROC		; AFPDFDocInterop::GetPageCount, COMDAT
; _this$ = ecx

; 66   : 	return ((AFPDFDoc *)_ptr)->GetPageCount();

	mov	ecx, DWORD PTR [ecx+4]
	mov	eax, DWORD PTR [ecx+332]
	test	eax, eax
	je	SHORT $LN3@GetPageCou@2
	cmp	DWORD PTR [eax+36], 0
	je	SHORT $LN3@GetPageCou@2
	mov	eax, DWORD PTR [eax+28]
	mov	eax, DWORD PTR [eax+12]

; 67   : }

	ret	0

; 66   : 	return ((AFPDFDoc *)_ptr)->GetPageCount();

$LN3@GetPageCou@2:
	xor	eax, eax

; 67   : }

	ret	0
?GetPageCount@AFPDFDocInterop@@QAEJXZ ENDP		; AFPDFDocInterop::GetPageCount
PUBLIC	?Dispose@AFPDFDocInterop@@QAEXXZ		; AFPDFDocInterop::Dispose
; Function compile flags: /Ogtpy
;	COMDAT ?Dispose@AFPDFDocInterop@@QAEXXZ
_TEXT	SEGMENT
?Dispose@AFPDFDocInterop@@QAEXXZ PROC			; AFPDFDocInterop::Dispose, COMDAT
; _this$ = ecx

; 90   : void AFPDFDocInterop::Dispose(){

	push	edi

; 91   : 	((AFPDFDoc *)_ptr)->Dispose();

	mov	edi, DWORD PTR [ecx+4]
	call	?Dispose@AFPDFDoc@@QAEXXZ		; AFPDFDoc::Dispose
	pop	edi

; 92   : }

	ret	0
?Dispose@AFPDFDocInterop@@QAEXXZ ENDP			; AFPDFDocInterop::Dispose
_TEXT	ENDS
PUBLIC	?FitScreenHeight@AFPDFDocInterop@@QAEJJ@Z	; AFPDFDocInterop::FitScreenHeight
; Function compile flags: /Ogtpy
;	COMDAT ?FitScreenHeight@AFPDFDocInterop@@QAEJJ@Z
_TEXT	SEGMENT
_lhWnd$ = 8						; size = 4
?FitScreenHeight@AFPDFDocInterop@@QAEJJ@Z PROC		; AFPDFDocInterop::FitScreenHeight, COMDAT
; _this$ = ecx

; 71   : long AFPDFDocInterop::FitScreenHeight(long lhWnd){

	mov	eax, ecx

; 72   : 	return ((AFPDFDoc *)_ptr)->FitScreenHeight(lhWnd);

	mov	ecx, DWORD PTR _lhWnd$[esp-4]
	push	esi
	mov	esi, DWORD PTR [eax+4]
	call	?FitScreenHeight@AFPDFDoc@@QAENJ@Z	; AFPDFDoc::FitScreenHeight
	call	__ftol2_sse
	pop	esi

; 73   : }

	ret	4
?FitScreenHeight@AFPDFDocInterop@@QAEJJ@Z ENDP		; AFPDFDocInterop::FitScreenHeight
_TEXT	ENDS
PUBLIC	?FitScreenWidth@AFPDFDocInterop@@QAEJJ@Z	; AFPDFDocInterop::FitScreenWidth
; Function compile flags: /Ogtpy
;	COMDAT ?FitScreenWidth@AFPDFDocInterop@@QAEJJ@Z
_TEXT	SEGMENT
_lhWnd$ = 8						; size = 4
?FitScreenWidth@AFPDFDocInterop@@QAEJJ@Z PROC		; AFPDFDocInterop::FitScreenWidth, COMDAT
; _this$ = ecx

; 68   : long AFPDFDocInterop::FitScreenWidth(long lhWnd){

	mov	eax, ecx

; 69   : 	return ((AFPDFDoc *)_ptr)->FitScreenWidth(lhWnd);

	mov	ecx, DWORD PTR _lhWnd$[esp-4]
	push	esi
	mov	esi, DWORD PTR [eax+4]
	call	?FitScreenWidth@AFPDFDoc@@QAENJ@Z	; AFPDFDoc::FitScreenWidth
	call	__ftol2_sse
	pop	esi

; 70   : }

	ret	4
?FitScreenWidth@AFPDFDocInterop@@QAEJJ@Z ENDP		; AFPDFDocInterop::FitScreenWidth
PUBLIC	?GetProducer@AFPDFDocInterop@@QAEPA_WXZ		; AFPDFDocInterop::GetProducer
; Function compile flags: /Ogtpy
;	COMDAT ?GetProducer@AFPDFDocInterop@@QAEPA_WXZ
_TEXT	SEGMENT
_info$186247 = -24					; size = 24
?GetProducer@AFPDFDocInterop@@QAEPA_WXZ PROC		; AFPDFDocInterop::GetProducer, COMDAT
; _this$ = ecx

; 205  : 	wchar_t *AFPDFDocInterop::GetProducer(){ return ((AFPDFDoc *)_ptr)->getProducer(); }

	push	ebp
	mov	ebp, esp
	and	esp, -8					; fffffff8H
	sub	esp, 28					; 0000001cH
	mov	eax, DWORD PTR [ecx+4]
	mov	ecx, DWORD PTR ?globalParams@@3PAVGlobalParams@@A ; globalParams
	push	esi
	mov	esi, DWORD PTR [eax+332]
	xor	eax, eax
	mov	DWORD PTR _info$186247[esp+32], eax
	mov	DWORD PTR _info$186247[esp+36], eax
	mov	DWORD PTR _info$186247[esp+40], 13	; 0000000dH
	call	?getTextEncoding@GlobalParams@@QAEPAVUnicodeMap@@XZ ; GlobalParams::getTextEncoding
	test	eax, eax
	je	SHORT $LN19@GetProduce
	lea	ecx, DWORD PTR _info$186247[esp+32]
	push	ecx
	mov	ecx, DWORD PTR [esi+24]
	call	?getDocInfo@XRef@@QAEPAVObject@@PAV2@@Z	; XRef::getDocInfo
$LN19@GetProduce:
	mov	eax, OFFSET _EmptyChar
	pop	esi
	mov	esp, ebp
	pop	ebp
	ret	0
?GetProducer@AFPDFDocInterop@@QAEPA_WXZ ENDP		; AFPDFDocInterop::GetProducer
_TEXT	ENDS
PUBLIC	?GetCreator@AFPDFDocInterop@@QAEPA_WXZ		; AFPDFDocInterop::GetCreator
; Function compile flags: /Ogtpy
;	COMDAT ?GetCreator@AFPDFDocInterop@@QAEPA_WXZ
_TEXT	SEGMENT
_info$186306 = -24					; size = 24
?GetCreator@AFPDFDocInterop@@QAEPA_WXZ PROC		; AFPDFDocInterop::GetCreator, COMDAT
; _this$ = ecx

; 204  : 	wchar_t *AFPDFDocInterop::GetCreator(){ return ((AFPDFDoc *)_ptr)->getCreator(); }

	push	ebp
	mov	ebp, esp
	and	esp, -8					; fffffff8H
	sub	esp, 28					; 0000001cH
	mov	eax, DWORD PTR [ecx+4]
	mov	ecx, DWORD PTR ?globalParams@@3PAVGlobalParams@@A ; globalParams
	push	esi
	mov	esi, DWORD PTR [eax+332]
	xor	eax, eax
	mov	DWORD PTR _info$186306[esp+32], eax
	mov	DWORD PTR _info$186306[esp+36], eax
	mov	DWORD PTR _info$186306[esp+40], 13	; 0000000dH
	call	?getTextEncoding@GlobalParams@@QAEPAVUnicodeMap@@XZ ; GlobalParams::getTextEncoding
	test	eax, eax
	je	SHORT $LN19@GetCreator
	lea	ecx, DWORD PTR _info$186306[esp+32]
	push	ecx
	mov	ecx, DWORD PTR [esi+24]
	call	?getDocInfo@XRef@@QAEPAVObject@@PAV2@@Z	; XRef::getDocInfo
$LN19@GetCreator:
	mov	eax, OFFSET _EmptyChar
	pop	esi
	mov	esp, ebp
	pop	ebp
	ret	0
?GetCreator@AFPDFDocInterop@@QAEPA_WXZ ENDP		; AFPDFDocInterop::GetCreator
_TEXT	ENDS
PUBLIC	?GetKeywords@AFPDFDocInterop@@QAEPA_WXZ		; AFPDFDocInterop::GetKeywords
; Function compile flags: /Ogtpy
;	COMDAT ?GetKeywords@AFPDFDocInterop@@QAEPA_WXZ
_TEXT	SEGMENT
_info$186365 = -24					; size = 24
?GetKeywords@AFPDFDocInterop@@QAEPA_WXZ PROC		; AFPDFDocInterop::GetKeywords, COMDAT
; _this$ = ecx

; 203  : 	wchar_t *AFPDFDocInterop::GetKeywords(){ return ((AFPDFDoc *)_ptr)->getKeywords(); }

	push	ebp
	mov	ebp, esp
	and	esp, -8					; fffffff8H
	sub	esp, 28					; 0000001cH
	mov	eax, DWORD PTR [ecx+4]
	mov	ecx, DWORD PTR ?globalParams@@3PAVGlobalParams@@A ; globalParams
	push	esi
	mov	esi, DWORD PTR [eax+332]
	xor	eax, eax
	mov	DWORD PTR _info$186365[esp+32], eax
	mov	DWORD PTR _info$186365[esp+36], eax
	mov	DWORD PTR _info$186365[esp+40], 13	; 0000000dH
	call	?getTextEncoding@GlobalParams@@QAEPAVUnicodeMap@@XZ ; GlobalParams::getTextEncoding
	test	eax, eax
	je	SHORT $LN19@GetKeyword
	lea	ecx, DWORD PTR _info$186365[esp+32]
	push	ecx
	mov	ecx, DWORD PTR [esi+24]
	call	?getDocInfo@XRef@@QAEPAVObject@@PAV2@@Z	; XRef::getDocInfo
$LN19@GetKeyword:
	mov	eax, OFFSET _EmptyChar
	pop	esi
	mov	esp, ebp
	pop	ebp
	ret	0
?GetKeywords@AFPDFDocInterop@@QAEPA_WXZ ENDP		; AFPDFDocInterop::GetKeywords
_TEXT	ENDS
PUBLIC	?GetSubject@AFPDFDocInterop@@QAEPA_WXZ		; AFPDFDocInterop::GetSubject
; Function compile flags: /Ogtpy
;	COMDAT ?GetSubject@AFPDFDocInterop@@QAEPA_WXZ
_TEXT	SEGMENT
_info$186434 = -24					; size = 24
?GetSubject@AFPDFDocInterop@@QAEPA_WXZ PROC		; AFPDFDocInterop::GetSubject, COMDAT
; _this$ = ecx

; 202  : 	wchar_t *AFPDFDocInterop::GetSubject(){ return ((AFPDFDoc *)_ptr)->getSubject(); }

	push	ebp
	mov	ebp, esp
	and	esp, -8					; fffffff8H
	sub	esp, 28					; 0000001cH
	mov	eax, DWORD PTR [ecx+4]
	mov	ecx, DWORD PTR ?globalParams@@3PAVGlobalParams@@A ; globalParams
	push	esi
	mov	esi, DWORD PTR [eax+332]
	xor	eax, eax
	mov	DWORD PTR _info$186434[esp+32], eax
	mov	DWORD PTR _info$186434[esp+36], eax
	mov	DWORD PTR _info$186434[esp+40], 13	; 0000000dH
	call	?getTextEncoding@GlobalParams@@QAEPAVUnicodeMap@@XZ ; GlobalParams::getTextEncoding
	test	eax, eax
	je	SHORT $LN19@GetSubject
	lea	ecx, DWORD PTR _info$186434[esp+32]
	push	ecx
	mov	ecx, DWORD PTR [esi+24]
	call	?getDocInfo@XRef@@QAEPAVObject@@PAV2@@Z	; XRef::getDocInfo
$LN19@GetSubject:
	mov	eax, OFFSET _EmptyChar
	pop	esi
	mov	esp, ebp
	pop	ebp
	ret	0
?GetSubject@AFPDFDocInterop@@QAEPA_WXZ ENDP		; AFPDFDocInterop::GetSubject
_TEXT	ENDS
PUBLIC	?GetAuthor@AFPDFDocInterop@@QAEPA_WXZ		; AFPDFDocInterop::GetAuthor
; Function compile flags: /Ogtpy
;	COMDAT ?GetAuthor@AFPDFDocInterop@@QAEPA_WXZ
_TEXT	SEGMENT
_info$186493 = -24					; size = 24
?GetAuthor@AFPDFDocInterop@@QAEPA_WXZ PROC		; AFPDFDocInterop::GetAuthor, COMDAT
; _this$ = ecx

; 170  :  wchar_t * AFPDFDocInterop::GetAuthor(){

	push	ebp
	mov	ebp, esp
	and	esp, -8					; fffffff8H
	sub	esp, 28					; 0000001cH

; 171  : 	return ((AFPDFDoc *)_ptr)->getAuthor();

	mov	eax, DWORD PTR [ecx+4]
	mov	ecx, DWORD PTR ?globalParams@@3PAVGlobalParams@@A ; globalParams
	push	esi
	mov	esi, DWORD PTR [eax+332]
	xor	eax, eax
	mov	DWORD PTR _info$186493[esp+32], eax
	mov	DWORD PTR _info$186493[esp+36], eax
	mov	DWORD PTR _info$186493[esp+40], 13	; 0000000dH
	call	?getTextEncoding@GlobalParams@@QAEPAVUnicodeMap@@XZ ; GlobalParams::getTextEncoding
	test	eax, eax
	je	SHORT $LN19@GetAuthor
	lea	ecx, DWORD PTR _info$186493[esp+32]
	push	ecx
	mov	ecx, DWORD PTR [esi+24]
	call	?getDocInfo@XRef@@QAEPAVObject@@PAV2@@Z	; XRef::getDocInfo
$LN19@GetAuthor:
	mov	eax, OFFSET _EmptyChar

; 172  :  }

	pop	esi
	mov	esp, ebp
	pop	ebp
	ret	0
?GetAuthor@AFPDFDocInterop@@QAEPA_WXZ ENDP		; AFPDFDocInterop::GetAuthor
_TEXT	ENDS
PUBLIC	?GetTitle@AFPDFDocInterop@@QAEPA_WXZ		; AFPDFDocInterop::GetTitle
; Function compile flags: /Ogtpy
;	COMDAT ?GetTitle@AFPDFDocInterop@@QAEPA_WXZ
_TEXT	SEGMENT
_info$186552 = -24					; size = 24
?GetTitle@AFPDFDocInterop@@QAEPA_WXZ PROC		; AFPDFDocInterop::GetTitle, COMDAT
; _this$ = ecx

; 166  :  wchar_t * AFPDFDocInterop::GetTitle(){

	push	ebp
	mov	ebp, esp
	and	esp, -8					; fffffff8H
	sub	esp, 28					; 0000001cH

; 167  : 	return ((AFPDFDoc *)_ptr)->getTitle();

	mov	eax, DWORD PTR [ecx+4]
	mov	ecx, DWORD PTR ?globalParams@@3PAVGlobalParams@@A ; globalParams
	push	esi
	mov	esi, DWORD PTR [eax+332]
	xor	eax, eax
	mov	DWORD PTR _info$186552[esp+32], eax
	mov	DWORD PTR _info$186552[esp+36], eax
	mov	DWORD PTR _info$186552[esp+40], 13	; 0000000dH
	call	?getTextEncoding@GlobalParams@@QAEPAVUnicodeMap@@XZ ; GlobalParams::getTextEncoding
	test	eax, eax
	je	SHORT $LN19@GetTitle@2
	lea	ecx, DWORD PTR _info$186552[esp+32]
	push	ecx
	mov	ecx, DWORD PTR [esi+24]
	call	?getDocInfo@XRef@@QAEPAVObject@@PAV2@@Z	; XRef::getDocInfo
$LN19@GetTitle@2:
	mov	eax, OFFSET _EmptyChar

; 168  :  }

	pop	esi
	mov	esp, ebp
	pop	ebp
	ret	0
?GetTitle@AFPDFDocInterop@@QAEPA_WXZ ENDP		; AFPDFDocInterop::GetTitle
_TEXT	ENDS
PUBLIC	??0AFPDFDocInterop@@QAE@PAD@Z			; AFPDFDocInterop::AFPDFDocInterop
;	COMDAT xdata$x
; File c:\cygwin\home\uejima\pdflibnet\libafpdflib\pagelinksinterop.cpp
xdata$x	SEGMENT
__unwindtable$??0AFPDFDocInterop@@QAE@PAD@Z DD 0ffffffffH
	DD	FLAT:__unwindfunclet$??0AFPDFDocInterop@@QAE@PAD@Z$0
__ehfuncinfo$??0AFPDFDocInterop@@QAE@PAD@Z DD 019930522H
	DD	01H
	DD	FLAT:__unwindtable$??0AFPDFDocInterop@@QAE@PAD@Z
	DD	2 DUP(00H)
	DD	2 DUP(00H)
	DD	00H
	DD	01H
; Function compile flags: /Ogtpy
; File c:\cygwin\home\uejima\pdflibnet\libafpdflib\afpdfdocinterop.cpp
xdata$x	ENDS
;	COMDAT ??0AFPDFDocInterop@@QAE@PAD@Z
_TEXT	SEGMENT
$T186563 = -16						; size = 4
__$EHRec$ = -12						; size = 12
_configFile$ = 8					; size = 4
??0AFPDFDocInterop@@QAE@PAD@Z PROC			; AFPDFDocInterop::AFPDFDocInterop, COMDAT
; _this$ = ecx

; 9    : {

	push	-1
	push	__ehhandler$??0AFPDFDocInterop@@QAE@PAD@Z
	mov	eax, DWORD PTR fs:0
	push	eax
	push	ecx
	push	esi
	push	edi
	mov	eax, DWORD PTR ___security_cookie
	xor	eax, esp
	push	eax
	lea	eax, DWORD PTR __$EHRec$[esp+28]
	mov	DWORD PTR fs:0, eax
	mov	esi, ecx
	push	552					; 00000228H
	mov	DWORD PTR [esi], OFFSET ??_7AFPDFDocInterop@@6B@
	call	??2@YAPAXI@Z				; operator new
	add	esp, 4
	mov	DWORD PTR $T186563[esp+28], eax
	xor	edi, edi
	mov	DWORD PTR __$EHRec$[esp+36], edi
	cmp	eax, edi
	je	SHORT $LN3@AFPDFDocIn@2
	mov	ecx, DWORD PTR _configFile$[esp+24]
	push	ecx
	push	eax
	call	??0AFPDFDoc@@QAE@PAD@Z			; AFPDFDoc::AFPDFDoc
	jmp	SHORT $LN4@AFPDFDocIn@2
$LN3@AFPDFDocIn@2:
	xor	eax, eax
$LN4@AFPDFDocIn@2:
	mov	DWORD PTR [esi+4], eax
	mov	DWORD PTR [esi+8], edi
	mov	DWORD PTR [esi+12], edi
	mov	DWORD PTR [esi+16], edi
	mov	DWORD PTR [esi+20], edi

; 10   : }

	mov	eax, esi
	mov	ecx, DWORD PTR __$EHRec$[esp+28]
	mov	DWORD PTR fs:0, ecx
	pop	ecx
	pop	edi
	pop	esi
	add	esp, 16					; 00000010H
	ret	4
_TEXT	ENDS
;	COMDAT text$x
text$x	SEGMENT
__unwindfunclet$??0AFPDFDocInterop@@QAE@PAD@Z$0:
	mov	eax, DWORD PTR $T186563[ebp]
	push	eax
	call	??3@YAXPAX@Z				; operator delete
	pop	ecx
	ret	0
__ehhandler$??0AFPDFDocInterop@@QAE@PAD@Z:
	mov	edx, DWORD PTR [esp+8]
	lea	eax, DWORD PTR [edx-12]
	mov	ecx, DWORD PTR [edx-16]
	xor	ecx, eax
	call	@__security_check_cookie@4
	mov	eax, OFFSET __ehfuncinfo$??0AFPDFDocInterop@@QAE@PAD@Z
	jmp	___CxxFrameHandler3
text$x	ENDS
??0AFPDFDocInterop@@QAE@PAD@Z ENDP			; AFPDFDocInterop::AFPDFDocInterop
PUBLIC	?findDest@AFPDFDocInterop@@QAEPAVLinkDestInterop@@PAD@Z ; AFPDFDocInterop::findDest
;	COMDAT xdata$x
; File c:\cygwin\home\uejima\pdflibnet\libafpdflib\linkdestinterop.cpp
xdata$x	SEGMENT
__unwindtable$?findDest@AFPDFDocInterop@@QAEPAVLinkDestInterop@@PAD@Z DD 0ffffffffH
	DD	FLAT:__unwindfunclet$?findDest@AFPDFDocInterop@@QAEPAVLinkDestInterop@@PAD@Z$0
__ehfuncinfo$?findDest@AFPDFDocInterop@@QAEPAVLinkDestInterop@@PAD@Z DD 019930522H
	DD	01H
	DD	FLAT:__unwindtable$?findDest@AFPDFDocInterop@@QAEPAVLinkDestInterop@@PAD@Z
	DD	2 DUP(00H)
	DD	2 DUP(00H)
	DD	00H
	DD	01H
; Function compile flags: /Ogtpy
; File c:\cygwin\home\uejima\pdflibnet\libafpdflib\afpdfdocinterop.cpp
xdata$x	ENDS
;	COMDAT ?findDest@AFPDFDocInterop@@QAEPAVLinkDestInterop@@PAD@Z
_TEXT	SEGMENT
$T187931 = -16						; size = 4
__$EHRec$ = -12						; size = 12
_destName$ = 8						; size = 4
?findDest@AFPDFDocInterop@@QAEPAVLinkDestInterop@@PAD@Z PROC ; AFPDFDocInterop::findDest, COMDAT
; _this$ = ecx

; 242  : 	{

	push	-1
	push	__ehhandler$?findDest@AFPDFDocInterop@@QAEPAVLinkDestInterop@@PAD@Z
	mov	eax, DWORD PTR fs:0
	push	eax
	push	ecx
	push	esi
	push	edi
	mov	eax, DWORD PTR ___security_cookie
	xor	eax, esp
	push	eax
	lea	eax, DWORD PTR __$EHRec$[esp+28]
	mov	DWORD PTR fs:0, eax
	mov	edi, ecx

; 243  : 		return new LinkDestInterop( ((AFPDFDoc *)_ptr)->findDest(destName),this);

	push	8
	call	??2@YAPAXI@Z				; operator new
	mov	esi, eax
	add	esp, 4
	mov	DWORD PTR $T187931[esp+28], esi
	xor	eax, eax
	mov	DWORD PTR __$EHRec$[esp+36], eax
	cmp	esi, eax
	je	SHORT $LN4@findDest
	mov	eax, DWORD PTR _destName$[esp+24]
	mov	ecx, DWORD PTR [edi+4]
	push	eax
	push	ecx
	call	?findDest@AFPDFDoc@@QAEPAVLinkDest@@PAD@Z ; AFPDFDoc::findDest
	mov	DWORD PTR [esi], eax
	mov	DWORD PTR [esi+4], edi
	mov	eax, esi
$LN4@findDest:

; 244  : 	}

	mov	ecx, DWORD PTR __$EHRec$[esp+28]
	mov	DWORD PTR fs:0, ecx
	pop	ecx
	pop	edi
	pop	esi
	add	esp, 16					; 00000010H
	ret	4
_TEXT	ENDS
;	COMDAT text$x
text$x	SEGMENT
__unwindfunclet$?findDest@AFPDFDocInterop@@QAEPAVLinkDestInterop@@PAD@Z$0:
	mov	eax, DWORD PTR $T187931[ebp]
	push	eax
	call	??3@YAXPAX@Z				; operator delete
	pop	ecx
	ret	0
__ehhandler$?findDest@AFPDFDocInterop@@QAEPAVLinkDestInterop@@PAD@Z:
	mov	edx, DWORD PTR [esp+8]
	lea	eax, DWORD PTR [edx-12]
	mov	ecx, DWORD PTR [edx-16]
	xor	ecx, eax
	call	@__security_check_cookie@4
	mov	eax, OFFSET __ehfuncinfo$?findDest@AFPDFDocInterop@@QAEPAVLinkDestInterop@@PAD@Z
	jmp	___CxxFrameHandler3
text$x	ENDS
?findDest@AFPDFDocInterop@@QAEPAVLinkDestInterop@@PAD@Z ENDP ; AFPDFDocInterop::findDest
PUBLIC	?ProcessLinkAction@AFPDFDocInterop@@QAEJJ@Z	; AFPDFDocInterop::ProcessLinkAction
; Function compile flags: /Ogtpy
;	COMDAT ?ProcessLinkAction@AFPDFDocInterop@@QAEJJ@Z
_TEXT	SEGMENT
_lPtrLinkAction$ = 8					; size = 4
?ProcessLinkAction@AFPDFDocInterop@@QAEJJ@Z PROC	; AFPDFDocInterop::ProcessLinkAction, COMDAT
; _this$ = ecx

; 87   : long AFPDFDocInterop::ProcessLinkAction(long lPtrLinkAction){

	push	ebx

; 88   : 	return ((AFPDFDoc *)_ptr)->ProcessLinkAction(lPtrLinkAction);

	mov	ebx, DWORD PTR _lPtrLinkAction$[esp]
	push	edi
	mov	edi, DWORD PTR [ecx+4]
	call	?ProcessLinkAction@AFPDFDoc@@QAEJJ@Z	; AFPDFDoc::ProcessLinkAction
	pop	edi
	pop	ebx

; 89   : }	

	ret	4
?ProcessLinkAction@AFPDFDocInterop@@QAEJJ@Z ENDP	; AFPDFDocInterop::ProcessLinkAction
PUBLIC	?getPageLinksInterop@AFPDFDocInterop@@QAEPAVPageLinksInterop@@J@Z ; AFPDFDocInterop::getPageLinksInterop
;	COMDAT xdata$x
; File c:\cygwin\home\uejima\pdflibnet\libafpdflib\pagelinksinterop.cpp
xdata$x	SEGMENT
__unwindtable$?getPageLinksInterop@AFPDFDocInterop@@QAEPAVPageLinksInterop@@J@Z DD 0ffffffffH
	DD	FLAT:__unwindfunclet$?getPageLinksInterop@AFPDFDocInterop@@QAEPAVPageLinksInterop@@J@Z$0
__ehfuncinfo$?getPageLinksInterop@AFPDFDocInterop@@QAEPAVPageLinksInterop@@J@Z DD 019930522H
	DD	01H
	DD	FLAT:__unwindtable$?getPageLinksInterop@AFPDFDocInterop@@QAEPAVPageLinksInterop@@J@Z
	DD	2 DUP(00H)
	DD	2 DUP(00H)
	DD	00H
	DD	01H
; Function compile flags: /Ogtpy
; File c:\cygwin\home\uejima\pdflibnet\libafpdflib\afpdfdocinterop.cpp
xdata$x	ENDS
;	COMDAT ?getPageLinksInterop@AFPDFDocInterop@@QAEPAVPageLinksInterop@@J@Z
_TEXT	SEGMENT
__$EHRec$ = -12						; size = 12
$T189338 = 8						; size = 4
_iPage$ = 8						; size = 4
?getPageLinksInterop@AFPDFDocInterop@@QAEPAVPageLinksInterop@@J@Z PROC ; AFPDFDocInterop::getPageLinksInterop, COMDAT
; _this$ = ecx

; 174  :  PageLinksInterop *AFPDFDocInterop::getPageLinksInterop(long iPage){

	push	-1
	push	__ehhandler$?getPageLinksInterop@AFPDFDocInterop@@QAEPAVPageLinksInterop@@J@Z
	mov	eax, DWORD PTR fs:0
	push	eax
	push	ebp
	push	esi
	push	edi
	mov	eax, DWORD PTR ___security_cookie
	xor	eax, esp
	push	eax
	lea	eax, DWORD PTR __$EHRec$[esp+28]
	mov	DWORD PTR fs:0, eax
	mov	edi, ecx

; 175  : 	 if(iPage>=0 && iPage<this->GetPageCount()){

	mov	ebp, DWORD PTR _iPage$[esp+24]
	test	ebp, ebp
	jl	$LN1@getPageLin
	mov	eax, DWORD PTR [edi+4]
	mov	eax, DWORD PTR [eax+332]
	test	eax, eax
	je	SHORT $LN9@getPageLin
	cmp	DWORD PTR [eax+36], 0
	je	SHORT $LN9@getPageLin
	mov	eax, DWORD PTR [eax+28]
	mov	eax, DWORD PTR [eax+12]
	jmp	SHORT $LN11@getPageLin
$LN9@getPageLin:
	xor	eax, eax
$LN11@getPageLin:
	cmp	ebp, eax
	jge	SHORT $LN1@getPageLin

; 176  : 		PageLinksInterop *pl =new PageLinksInterop(((AFPDFDoc *)_ptr)->GetLinksPage(iPage),this);

	push	12					; 0000000cH
	call	??2@YAPAXI@Z				; operator new
	mov	esi, eax
	add	esp, 4
	mov	DWORD PTR $T189338[esp+24], esi
	mov	DWORD PTR __$EHRec$[esp+36], 0
	test	esi, esi
	je	SHORT $LN1@getPageLin
	mov	eax, DWORD PTR [edi+4]
	mov	ecx, DWORD PTR [eax+332]
	cmp	DWORD PTR [ecx+28], 0
	je	SHORT $LN19@getPageLin
	push	ebp
	call	?getLinks@PDFDoc@@QAEPAVLinks@@H@Z	; PDFDoc::getLinks
	mov	DWORD PTR [esi], eax
	mov	DWORD PTR [esi+4], edi
	mov	DWORD PTR [esi+8], 0
	mov	eax, esi

; 180  :  }

	mov	ecx, DWORD PTR __$EHRec$[esp+28]
	mov	DWORD PTR fs:0, ecx
	pop	ecx
	pop	edi
	pop	esi
	pop	ebp
	add	esp, 12					; 0000000cH
	ret	4

; 176  : 		PageLinksInterop *pl =new PageLinksInterop(((AFPDFDoc *)_ptr)->GetLinksPage(iPage),this);

$LN19@getPageLin:
	xor	eax, eax
	mov	DWORD PTR [esi], eax
	mov	DWORD PTR [esi+8], eax
	mov	DWORD PTR [esi+4], edi
	mov	eax, esi

; 180  :  }

	mov	ecx, DWORD PTR __$EHRec$[esp+28]
	mov	DWORD PTR fs:0, ecx
	pop	ecx
	pop	edi
	pop	esi
	pop	ebp
	add	esp, 12					; 0000000cH
	ret	4
$LN1@getPageLin:

; 177  : 		return pl;
; 178  : 	 }
; 179  : 	 return 0;

	xor	eax, eax

; 180  :  }

	mov	ecx, DWORD PTR __$EHRec$[esp+28]
	mov	DWORD PTR fs:0, ecx
	pop	ecx
	pop	edi
	pop	esi
	pop	ebp
	add	esp, 12					; 0000000cH
	ret	4
_TEXT	ENDS
;	COMDAT text$x
text$x	SEGMENT
__unwindfunclet$?getPageLinksInterop@AFPDFDocInterop@@QAEPAVPageLinksInterop@@J@Z$0:
	mov	eax, DWORD PTR $T189338[ebp-4]
	push	eax
	call	??3@YAXPAX@Z				; operator delete
	pop	ecx
	ret	0
__ehhandler$?getPageLinksInterop@AFPDFDocInterop@@QAEPAVPageLinksInterop@@J@Z:
	mov	edx, DWORD PTR [esp+8]
	lea	eax, DWORD PTR [edx-12]
	mov	ecx, DWORD PTR [edx-16]
	xor	ecx, eax
	call	@__security_check_cookie@4
	mov	eax, OFFSET __ehfuncinfo$?getPageLinksInterop@AFPDFDocInterop@@QAEPAVPageLinksInterop@@J@Z
	jmp	___CxxFrameHandler3
text$x	ENDS
?getPageLinksInterop@AFPDFDocInterop@@QAEPAVPageLinksInterop@@J@Z ENDP ; AFPDFDocInterop::getPageLinksInterop
PUBLIC	?LoadFromStream@AFPDFDocInterop@@QAEJPAXH@Z	; AFPDFDocInterop::LoadFromStream
; Function compile flags: /Ogtpy
;	COMDAT ?LoadFromStream@AFPDFDocInterop@@QAEJPAXH@Z
_TEXT	SEGMENT
_callback$ = 8						; size = 4
_lenght$ = 12						; size = 4
?LoadFromStream@AFPDFDocInterop@@QAEJPAXH@Z PROC	; AFPDFDocInterop::LoadFromStream, COMDAT
; _this$ = ecx

; 23   : 	return ((AFPDFDoc *)_ptr)->LoadFromStream(callback,lenght,0,0);

	mov	eax, DWORD PTR _lenght$[esp-4]
	mov	edx, DWORD PTR _callback$[esp-4]
	push	ebx
	mov	ebx, DWORD PTR [ecx+4]
	push	eax
	push	edx
	call	?LoadFromStream@AFPDFDoc@@QAEJPAXJPAD1@Z ; AFPDFDoc::LoadFromStream
	pop	ebx

; 24   : }

	ret	8
?LoadFromStream@AFPDFDocInterop@@QAEJPAXH@Z ENDP	; AFPDFDocInterop::LoadFromStream
PUBLIC	?SaveJpg@AFPDFDocInterop@@QAEJPADHHMHH@Z	; AFPDFDocInterop::SaveJpg
; Function compile flags: /Ogtpy
;	COMDAT ?SaveJpg@AFPDFDocInterop@@QAEJPADHHMHH@Z
_TEXT	SEGMENT
_fileName$ = 8						; size = 4
_firstPage$ = 12					; size = 4
_lastPage$ = 16						; size = 4
_renderDPI$ = 20					; size = 4
_quality$ = 24						; size = 4
_waitProc$ = 28						; size = 4
?SaveJpg@AFPDFDocInterop@@QAEJPADHHMHH@Z PROC		; AFPDFDocInterop::SaveJpg, COMDAT
; _this$ = ecx

; 191  : 			return ((AFPDFDoc *)_ptr)->SaveJpg(fileName,renderDPI,firstPage,lastPage,quality,waitProc);

	mov	eax, DWORD PTR _waitProc$[esp-4]
	fld	DWORD PTR _renderDPI$[esp-4]
	mov	edx, DWORD PTR _quality$[esp-4]
	push	eax
	mov	eax, DWORD PTR _lastPage$[esp]
	push	edx
	mov	edx, DWORD PTR _firstPage$[esp+4]
	push	eax
	mov	eax, DWORD PTR _fileName$[esp+8]
	push	edx
	push	ecx
	mov	ecx, DWORD PTR [ecx+4]
	fstp	DWORD PTR [esp]
	push	eax
	call	?SaveJpg@AFPDFDoc@@QAEHPADMHHHH@Z	; AFPDFDoc::SaveJpg

; 192  : 	}

	ret	24					; 00000018H
?SaveJpg@AFPDFDocInterop@@QAEJPADHHMHH@Z ENDP		; AFPDFDocInterop::SaveJpg
_TEXT	ENDS
PUBLIC	?FindFirst@AFPDFDocInterop@@QAEJPB_WJ_N1@Z	; AFPDFDocInterop::FindFirst
; Function compile flags: /Ogtpy
;	COMDAT ?FindFirst@AFPDFDocInterop@@QAEJPB_WJ_N1@Z
_TEXT	SEGMENT
_sText$ = 8						; size = 4
_SearchOrder$ = 12					; size = 4
_Backward$ = 16						; size = 1
_WholeWord$ = 20					; size = 1
?FindFirst@AFPDFDocInterop@@QAEJPB_WJ_N1@Z PROC		; AFPDFDocInterop::FindFirst, COMDAT
; _this$ = ecx

; 113  : 	return ((AFPDFDoc *)_ptr)->FindFirst(sText,SearchOrder,Backward, WholeWord);

	mov	eax, DWORD PTR _WholeWord$[esp-4]
	mov	edx, DWORD PTR _Backward$[esp-4]
	mov	ecx, DWORD PTR [ecx+4]
	push	eax
	mov	eax, DWORD PTR _SearchOrder$[esp]
	push	edx
	mov	edx, DWORD PTR _sText$[esp+4]
	push	eax
	call	?FindFirst@AFPDFDoc@@QAEJPB_WJ_N1@Z	; AFPDFDoc::FindFirst

; 114  : }

	ret	16					; 00000010H
?FindFirst@AFPDFDocInterop@@QAEJPB_WJ_N1@Z ENDP		; AFPDFDocInterop::FindFirst
_TEXT	ENDS
PUBLIC	?FindPrior@AFPDFDocInterop@@QAEJPB_W@Z		; AFPDFDocInterop::FindPrior
; Function compile flags: /Ogtpy
;	COMDAT ?FindPrior@AFPDFDocInterop@@QAEJPB_W@Z
_TEXT	SEGMENT
_sText$ = 8						; size = 4
?FindPrior@AFPDFDocInterop@@QAEJPB_W@Z PROC		; AFPDFDocInterop::FindPrior, COMDAT
; _this$ = ecx

; 110  : 	return ((AFPDFDoc *)_ptr)->FindPrior(sText);

	mov	edx, DWORD PTR _sText$[esp-4]
	mov	ecx, DWORD PTR [ecx+4]
	call	?FindPrior@AFPDFDoc@@QAEJPB_W@Z		; AFPDFDoc::FindPrior

; 111  : }

	ret	4
?FindPrior@AFPDFDocInterop@@QAEJPB_W@Z ENDP		; AFPDFDocInterop::FindPrior
_TEXT	ENDS
PUBLIC	?FindNext@AFPDFDocInterop@@QAEJPB_W@Z		; AFPDFDocInterop::FindNext
; Function compile flags: /Ogtpy
;	COMDAT ?FindNext@AFPDFDocInterop@@QAEJPB_W@Z
_TEXT	SEGMENT
_sText$ = 8						; size = 4
?FindNext@AFPDFDocInterop@@QAEJPB_W@Z PROC		; AFPDFDocInterop::FindNext, COMDAT
; _this$ = ecx

; 107  : 	return ((AFPDFDoc *)_ptr)->FindNext(sText);

	mov	edx, DWORD PTR _sText$[esp-4]
	mov	ecx, DWORD PTR [ecx+4]
	call	?FindNext@AFPDFDoc@@QAEJPB_W@Z		; AFPDFDoc::FindNext

; 108  : }

	ret	4
?FindNext@AFPDFDocInterop@@QAEJPB_W@Z ENDP		; AFPDFDocInterop::FindNext
_TEXT	ENDS
PUBLIC	?FindString@AFPDFDocInterop@@QAEJPB_WJJ_N11111@Z ; AFPDFDocInterop::FindString
; Function compile flags: /Ogtpy
;	COMDAT ?FindString@AFPDFDocInterop@@QAEJPB_WJJ_N11111@Z
_TEXT	SEGMENT
_sText$ = 8						; size = 4
_iPage$ = 12						; size = 4
_SearchOrder$ = 16					; size = 4
_bCaseSensitive$ = 20					; size = 1
_bBackward$ = 24					; size = 1
_bMarkAll$ = 28						; size = 1
_bWholeDoc$ = 32					; size = 1
_bWholeWord$ = 36					; size = 1
_stopOnFirstPageResults$ = 40				; size = 1
?FindString@AFPDFDocInterop@@QAEJPB_WJJ_N11111@Z PROC	; AFPDFDocInterop::FindString, COMDAT
; _this$ = ecx

; 104  : 	return ((AFPDFDoc *)_ptr)->FindText(sText,iPage,SearchOrder,bCaseSensitive,bBackward,bMarkAll,bWholeDoc,bWholeWord,stopOnFirstPageResults);

	mov	eax, DWORD PTR _stopOnFirstPageResults$[esp-4]
	mov	edx, DWORD PTR _bWholeWord$[esp-4]
	mov	ecx, DWORD PTR [ecx+4]
	push	eax
	mov	eax, DWORD PTR _bWholeDoc$[esp]
	push	edx
	mov	edx, DWORD PTR _bBackward$[esp+4]
	push	eax
	mov	eax, DWORD PTR _bCaseSensitive$[esp+8]
	push	edx
	mov	edx, DWORD PTR _SearchOrder$[esp+12]
	push	eax
	mov	eax, DWORD PTR _iPage$[esp+16]
	push	edx
	push	eax
	push	ecx
	mov	ecx, DWORD PTR _sText$[esp+28]
	call	?FindTextA@AFPDFDoc@@QAEJPB_WJJ_N11111@Z ; AFPDFDoc::FindTextA

; 105  : }

	ret	36					; 00000024H
?FindString@AFPDFDocInterop@@QAEJPB_WJJ_N11111@Z ENDP	; AFPDFDocInterop::FindString
PUBLIC	?SaveTxt@AFPDFDocInterop@@QAEJPADHH_N11@Z	; AFPDFDocInterop::SaveTxt
; Function compile flags: /Ogtpy
;	COMDAT ?SaveTxt@AFPDFDocInterop@@QAEJPADHH_N11@Z
_TEXT	SEGMENT
_fileName$ = 8						; size = 4
_firstPage$ = 12					; size = 4
_lastPage$ = 16						; size = 4
_physLayout$ = 20					; size = 1
_rawOrder$ = 24						; size = 1
_htmlMeta$ = 28						; size = 1
?SaveTxt@AFPDFDocInterop@@QAEJPADHH_N11@Z PROC		; AFPDFDocInterop::SaveTxt, COMDAT
; _this$ = ecx

; 195  : 		return ((AFPDFDoc *)_ptr)->SaveTxt(fileName,firstPage,lastPage,htmlMeta,physLayout,rawOrder);

	mov	eax, DWORD PTR _rawOrder$[esp-4]
	mov	edx, DWORD PTR _physLayout$[esp-4]
	push	eax
	mov	eax, DWORD PTR _htmlMeta$[esp]
	push	edx
	mov	edx, DWORD PTR _lastPage$[esp+4]
	push	eax
	mov	eax, DWORD PTR _firstPage$[esp+8]
	push	edx
	mov	edx, DWORD PTR _fileName$[esp+12]
	push	eax
	mov	eax, DWORD PTR [ecx+4]
	push	edx
	push	eax
	call	?SaveTxt@AFPDFDoc@@QAEHPADHH_N11@Z	; AFPDFDoc::SaveTxt

; 196  : 	}

	ret	24					; 00000018H
?SaveTxt@AFPDFDocInterop@@QAEJPADHH_N11@Z ENDP		; AFPDFDocInterop::SaveTxt
_TEXT	ENDS
PUBLIC	?PrintToFile@AFPDFDocInterop@@QAEJPBDHH@Z	; AFPDFDocInterop::PrintToFile
; Function compile flags: /Ogtpy
;	COMDAT ?PrintToFile@AFPDFDocInterop@@QAEJPBDHH@Z
_TEXT	SEGMENT
_fileName$ = 8						; size = 4
_fromPage$ = 12						; size = 4
_toPage$ = 16						; size = 4
?PrintToFile@AFPDFDocInterop@@QAEJPBDHH@Z PROC		; AFPDFDocInterop::PrintToFile, COMDAT
; _this$ = ecx

; 156  : 	 return ((AFPDFDoc *)_ptr)->PrintToFile(fileName,fromPage,toPage);

	mov	eax, DWORD PTR _fromPage$[esp-4]
	mov	edx, DWORD PTR _fileName$[esp-4]
	push	ebx
	mov	ebx, DWORD PTR _toPage$[esp]
	push	edi
	mov	edi, DWORD PTR [ecx+4]
	push	eax
	push	edx
	call	?PrintToFile@AFPDFDoc@@QAEJPBDHH@Z	; AFPDFDoc::PrintToFile
	pop	edi
	pop	ebx

; 157  :  }

	ret	12					; 0000000cH
?PrintToFile@AFPDFDocInterop@@QAEJPBDHH@Z ENDP		; AFPDFDocInterop::PrintToFile
PUBLIC	?LoadFromFile@AFPDFDocInterop@@QAEJPAD@Z	; AFPDFDocInterop::LoadFromFile
; Function compile flags: /Ogtpy
;	COMDAT ?LoadFromFile@AFPDFDocInterop@@QAEJPAD@Z
_TEXT	SEGMENT
_sFileName$ = 8						; size = 4
?LoadFromFile@AFPDFDocInterop@@QAEJPAD@Z PROC		; AFPDFDocInterop::LoadFromFile, COMDAT
; _this$ = ecx

; 19   : 	return ((AFPDFDoc *)_ptr)->LoadFromFile(sFileName);

	mov	eax, DWORD PTR _sFileName$[esp-4]
	push	edi
	mov	edi, DWORD PTR [ecx+4]
	push	eax
	xor	ecx, ecx
	call	?LoadFromFile@AFPDFDoc@@QAEJPAD00@Z	; AFPDFDoc::LoadFromFile
	pop	edi

; 20   : }

	ret	4
?LoadFromFile@AFPDFDocInterop@@QAEJPAD@Z ENDP		; AFPDFDocInterop::LoadFromFile
PUBLIC	?DrawPage@AFPDFDocInterop@@QAEJHJHHN_NPAX0@Z	; AFPDFDocInterop::DrawPage
; Function compile flags: /Ogtpy
;	COMDAT ?DrawPage@AFPDFDocInterop@@QAEJHJHHN_NPAX0@Z
_TEXT	SEGMENT
_page$ = 8						; size = 4
_hdc$ = 12						; size = 4
_width$ = 16						; size = 4
_height$ = 20						; size = 4
_pdi$ = 24						; size = 8
_bThread$ = 32						; size = 1
_callback$ = 36						; size = 4
_bAntialising$ = 40					; size = 1
?DrawPage@AFPDFDocInterop@@QAEJHJHHN_NPAX0@Z PROC	; AFPDFDocInterop::DrawPage, COMDAT
; _this$ = ecx

; 291  : 	{

	push	ebp
	mov	ebp, esp
	and	esp, -64				; ffffffc0H

; 292  : 		AFPDFDoc *doc =((AFPDFDoc *)_ptr);
; 293  : 		return doc->DrawPage(page,hdc,width,height,pdi,bThread,callback, bAntialising);

	fld	QWORD PTR _pdi$[ebp]
	mov	eax, DWORD PTR _bAntialising$[ebp]
	mov	edx, DWORD PTR _callback$[ebp]
	mov	ecx, DWORD PTR [ecx+4]
	sub	esp, 8
	fstp	QWORD PTR [esp]
	push	eax
	mov	eax, DWORD PTR _bThread$[ebp]
	push	edx
	mov	edx, DWORD PTR _height$[ebp]
	push	eax
	mov	eax, DWORD PTR _width$[ebp]
	push	edx
	mov	edx, DWORD PTR _hdc$[ebp]
	push	eax
	mov	eax, DWORD PTR _page$[ebp]
	push	edx
	push	eax
	call	?DrawPage@AFPDFDoc@@QAEJHJHHN_NPAX0@Z	; AFPDFDoc::DrawPage

; 294  : 	}

	mov	esp, ebp
	pop	ebp
	ret	36					; 00000024H
?DrawPage@AFPDFDocInterop@@QAEJHJHHN_NPAX0@Z ENDP	; AFPDFDocInterop::DrawPage
_TEXT	ENDS
PUBLIC	?RenderPage@AFPDFDocInterop@@QAEJJ@Z		; AFPDFDocInterop::RenderPage
; Function compile flags: /Ogtpy
;	COMDAT ?RenderPage@AFPDFDocInterop@@QAEJJ@Z
_TEXT	SEGMENT
?RenderPage@AFPDFDocInterop@@QAEJJ@Z PROC		; AFPDFDocInterop::RenderPage, COMDAT
; _this$ = eax

; 37   : 	return ((AFPDFDoc *)_ptr)->RenderPage(lhWnd);

	mov	ecx, DWORD PTR [eax+4]
	push	1
	push	0
	call	?RenderPage@AFPDFDoc@@QAEJJ_N0@Z	; AFPDFDoc::RenderPage

; 38   : }

	ret	0
?RenderPage@AFPDFDocInterop@@QAEJJ@Z ENDP		; AFPDFDocInterop::RenderPage
_TEXT	ENDS
PUBLIC	?RenderPageThread@AFPDFDocInterop@@QAEJJ_N@Z	; AFPDFDocInterop::RenderPageThread
; Function compile flags: /Ogtpy
;	COMDAT ?RenderPageThread@AFPDFDocInterop@@QAEJJ_N@Z
_TEXT	SEGMENT
_lhWnd$ = 8						; size = 4
_bForce$ = 12						; size = 1
?RenderPageThread@AFPDFDocInterop@@QAEJJ_N@Z PROC	; AFPDFDocInterop::RenderPageThread, COMDAT
; _this$ = ecx

; 34   : 	return ((AFPDFDoc *)_ptr)->RenderPageThread(lhWnd,bForce);

	mov	ecx, DWORD PTR [ecx+4]
	call	?RenderPageThread@AFPDFDoc@@QAEJJ_N@Z	; AFPDFDoc::RenderPageThread

; 35   : }

	ret	8
?RenderPageThread@AFPDFDocInterop@@QAEJJ_N@Z ENDP	; AFPDFDocInterop::RenderPageThread
_TEXT	ENDS
PUBLIC	?RenderPage@AFPDFDocInterop@@QAEJJ_N0@Z		; AFPDFDocInterop::RenderPage
; Function compile flags: /Ogtpy
;	COMDAT ?RenderPage@AFPDFDocInterop@@QAEJJ_N0@Z
_TEXT	SEGMENT
_lhWnd$ = 8						; size = 4
_bForce$ = 12						; size = 1
_enableThread$ = 16					; size = 1
?RenderPage@AFPDFDocInterop@@QAEJJ_N0@Z PROC		; AFPDFDocInterop::RenderPage, COMDAT
; _this$ = ecx

; 30   : 	return ((AFPDFDoc *)_ptr)->RenderPage(lhWnd,bForce,enableThread);

	mov	eax, DWORD PTR _enableThread$[esp-4]
	mov	edx, DWORD PTR _bForce$[esp-4]
	mov	ecx, DWORD PTR [ecx+4]
	push	eax
	push	edx
	call	?RenderPage@AFPDFDoc@@QAEJJ_N0@Z	; AFPDFDoc::RenderPage

; 31   : }

	ret	12					; 0000000cH
?RenderPage@AFPDFDocInterop@@QAEJJ_N0@Z ENDP		; AFPDFDocInterop::RenderPage
_TEXT	ENDS
PUBLIC	?RenderPage@AFPDFDocInterop@@QAEJJ_N@Z		; AFPDFDocInterop::RenderPage
; Function compile flags: /Ogtpy
;	COMDAT ?RenderPage@AFPDFDocInterop@@QAEJJ_N@Z
_TEXT	SEGMENT
?RenderPage@AFPDFDocInterop@@QAEJJ_N@Z PROC		; AFPDFDocInterop::RenderPage, COMDAT
; _this$ = eax
; _bForce$ = edx

; 26   : 	return ((AFPDFDoc *)_ptr)->RenderPage(lhWnd,bForce);

	mov	ecx, DWORD PTR [eax+4]
	push	1
	push	edx
	call	?RenderPage@AFPDFDoc@@QAEJJ_N0@Z	; AFPDFDoc::RenderPage

; 27   : }

	ret	0
?RenderPage@AFPDFDocInterop@@QAEJJ_N@Z ENDP		; AFPDFDocInterop::RenderPage
_TEXT	ENDS
END
