; Listing generated by Microsoft (R) Optimizing Compiler Version 15.00.30729.01 

	TITLE	c:\projects\PDFLibNet\libAFPDFLib\LinkDestInterop.cpp
	.686P
	.XMM
	include listing.inc
	.model	flat


PUBLIC	??_C@_0P@GHFPNOJB@bad?5allocation?$AA@		; `string'
PUBLIC	?isPageRef@LinkDest@@QAEHXZ			; LinkDest::isPageRef
PUBLIC	?getPageNum@LinkDest@@QAEHXZ			; LinkDest::getPageNum
PUBLIC	?getPageRef@LinkDest@@QAE?AURef@@XZ		; LinkDest::getPageRef
PUBLIC	?getLeft@LinkDest@@QAENXZ			; LinkDest::getLeft
PUBLIC	?getBottom@LinkDest@@QAENXZ			; LinkDest::getBottom
PUBLIC	?getRight@LinkDest@@QAENXZ			; LinkDest::getRight
PUBLIC	?getTop@LinkDest@@QAENXZ			; LinkDest::getTop
PUBLIC	?getZoom@LinkDest@@QAENXZ			; LinkDest::getZoom
PUBLIC	?getChangeLeft@LinkDest@@QAEHXZ			; LinkDest::getChangeLeft
PUBLIC	?getChangeTop@LinkDest@@QAEHXZ			; LinkDest::getChangeTop
PUBLIC	?getChangeZoom@LinkDest@@QAEHXZ			; LinkDest::getChangeZoom
PUBLIC	?_Value@?$_Is_swap_move@U_Swap_move_tag@std@@@std@@2_NB ; std::_Is_swap_move<std::_Swap_move_tag>::_Value
PUBLIC	?collate@?$_Locbase@H@std@@2HB			; std::_Locbase<int>::collate
PUBLIC	?ctype@?$_Locbase@H@std@@2HB			; std::_Locbase<int>::ctype
PUBLIC	?monetary@?$_Locbase@H@std@@2HB			; std::_Locbase<int>::monetary
PUBLIC	?numeric@?$_Locbase@H@std@@2HB			; std::_Locbase<int>::numeric
PUBLIC	?time@?$_Locbase@H@std@@2HB			; std::_Locbase<int>::time
PUBLIC	?messages@?$_Locbase@H@std@@2HB			; std::_Locbase<int>::messages
PUBLIC	?all@?$_Locbase@H@std@@2HB			; std::_Locbase<int>::all
PUBLIC	?none@?$_Locbase@H@std@@2HB			; std::_Locbase<int>::none
PUBLIC	?skipws@?$_Iosb@H@std@@2W4_Fmtflags@12@B	; std::_Iosb<int>::skipws
PUBLIC	?unitbuf@?$_Iosb@H@std@@2W4_Fmtflags@12@B	; std::_Iosb<int>::unitbuf
PUBLIC	?uppercase@?$_Iosb@H@std@@2W4_Fmtflags@12@B	; std::_Iosb<int>::uppercase
PUBLIC	?showbase@?$_Iosb@H@std@@2W4_Fmtflags@12@B	; std::_Iosb<int>::showbase
PUBLIC	?showpoint@?$_Iosb@H@std@@2W4_Fmtflags@12@B	; std::_Iosb<int>::showpoint
PUBLIC	?showpos@?$_Iosb@H@std@@2W4_Fmtflags@12@B	; std::_Iosb<int>::showpos
PUBLIC	?left@?$_Iosb@H@std@@2W4_Fmtflags@12@B		; std::_Iosb<int>::left
PUBLIC	?right@?$_Iosb@H@std@@2W4_Fmtflags@12@B		; std::_Iosb<int>::right
PUBLIC	?internal@?$_Iosb@H@std@@2W4_Fmtflags@12@B	; std::_Iosb<int>::internal
PUBLIC	?dec@?$_Iosb@H@std@@2W4_Fmtflags@12@B		; std::_Iosb<int>::dec
PUBLIC	?oct@?$_Iosb@H@std@@2W4_Fmtflags@12@B		; std::_Iosb<int>::oct
PUBLIC	?hex@?$_Iosb@H@std@@2W4_Fmtflags@12@B		; std::_Iosb<int>::hex
PUBLIC	?scientific@?$_Iosb@H@std@@2W4_Fmtflags@12@B	; std::_Iosb<int>::scientific
PUBLIC	?fixed@?$_Iosb@H@std@@2W4_Fmtflags@12@B		; std::_Iosb<int>::fixed
PUBLIC	?hexfloat@?$_Iosb@H@std@@2W4_Fmtflags@12@B	; std::_Iosb<int>::hexfloat
PUBLIC	?boolalpha@?$_Iosb@H@std@@2W4_Fmtflags@12@B	; std::_Iosb<int>::boolalpha
PUBLIC	?_Stdio@?$_Iosb@H@std@@2W4_Fmtflags@12@B	; std::_Iosb<int>::_Stdio
PUBLIC	?adjustfield@?$_Iosb@H@std@@2W4_Fmtflags@12@B	; std::_Iosb<int>::adjustfield
PUBLIC	?basefield@?$_Iosb@H@std@@2W4_Fmtflags@12@B	; std::_Iosb<int>::basefield
PUBLIC	?floatfield@?$_Iosb@H@std@@2W4_Fmtflags@12@B	; std::_Iosb<int>::floatfield
PUBLIC	?goodbit@?$_Iosb@H@std@@2W4_Iostate@12@B	; std::_Iosb<int>::goodbit
PUBLIC	?eofbit@?$_Iosb@H@std@@2W4_Iostate@12@B		; std::_Iosb<int>::eofbit
PUBLIC	?failbit@?$_Iosb@H@std@@2W4_Iostate@12@B	; std::_Iosb<int>::failbit
PUBLIC	?badbit@?$_Iosb@H@std@@2W4_Iostate@12@B		; std::_Iosb<int>::badbit
PUBLIC	?_Hardfail@?$_Iosb@H@std@@2W4_Iostate@12@B	; std::_Iosb<int>::_Hardfail
PUBLIC	?in@?$_Iosb@H@std@@2W4_Openmode@12@B		; std::_Iosb<int>::in
PUBLIC	?out@?$_Iosb@H@std@@2W4_Openmode@12@B		; std::_Iosb<int>::out
PUBLIC	?ate@?$_Iosb@H@std@@2W4_Openmode@12@B		; std::_Iosb<int>::ate
PUBLIC	?app@?$_Iosb@H@std@@2W4_Openmode@12@B		; std::_Iosb<int>::app
PUBLIC	?trunc@?$_Iosb@H@std@@2W4_Openmode@12@B		; std::_Iosb<int>::trunc
PUBLIC	?_Nocreate@?$_Iosb@H@std@@2W4_Openmode@12@B	; std::_Iosb<int>::_Nocreate
PUBLIC	?_Noreplace@?$_Iosb@H@std@@2W4_Openmode@12@B	; std::_Iosb<int>::_Noreplace
PUBLIC	?binary@?$_Iosb@H@std@@2W4_Openmode@12@B	; std::_Iosb<int>::binary
PUBLIC	?beg@?$_Iosb@H@std@@2W4_Seekdir@12@B		; std::_Iosb<int>::beg
PUBLIC	?cur@?$_Iosb@H@std@@2W4_Seekdir@12@B		; std::_Iosb<int>::cur
PUBLIC	?end@?$_Iosb@H@std@@2W4_Seekdir@12@B		; std::_Iosb<int>::end
PUBLIC	?dyn_array_step@?$DynArray@PAX@@0HB		; DynArray<void *>::dyn_array_step
PUBLIC	?dyn_array_mult@?$DynArray@PAX@@0HB		; DynArray<void *>::dyn_array_mult
PUBLIC	?dyn_array_step@?$DynArray@VCPDFSearchResult@@@@0HB ; DynArray<CPDFSearchResult>::dyn_array_step
PUBLIC	?dyn_array_mult@?$DynArray@VCPDFSearchResult@@@@0HB ; DynArray<CPDFSearchResult>::dyn_array_mult
EXTRN	@__security_check_cookie@4:PROC
;	COMDAT ?dyn_array_mult@?$DynArray@VCPDFSearchResult@@@@0HB
CONST	SEGMENT
?dyn_array_mult@?$DynArray@VCPDFSearchResult@@@@0HB DD 02H ; DynArray<CPDFSearchResult>::dyn_array_mult
CONST	ENDS
;	COMDAT ?dyn_array_step@?$DynArray@VCPDFSearchResult@@@@0HB
CONST	SEGMENT
?dyn_array_step@?$DynArray@VCPDFSearchResult@@@@0HB DD 080H ; DynArray<CPDFSearchResult>::dyn_array_step
CONST	ENDS
;	COMDAT ?dyn_array_mult@?$DynArray@PAX@@0HB
CONST	SEGMENT
?dyn_array_mult@?$DynArray@PAX@@0HB DD 02H		; DynArray<void *>::dyn_array_mult
CONST	ENDS
;	COMDAT ?dyn_array_step@?$DynArray@PAX@@0HB
CONST	SEGMENT
?dyn_array_step@?$DynArray@PAX@@0HB DD 080H		; DynArray<void *>::dyn_array_step
CONST	ENDS
;	COMDAT ?end@?$_Iosb@H@std@@2W4_Seekdir@12@B
CONST	SEGMENT
?end@?$_Iosb@H@std@@2W4_Seekdir@12@B DD 02H		; std::_Iosb<int>::end
CONST	ENDS
;	COMDAT ?cur@?$_Iosb@H@std@@2W4_Seekdir@12@B
CONST	SEGMENT
?cur@?$_Iosb@H@std@@2W4_Seekdir@12@B DD 01H		; std::_Iosb<int>::cur
CONST	ENDS
;	COMDAT ?beg@?$_Iosb@H@std@@2W4_Seekdir@12@B
CONST	SEGMENT
?beg@?$_Iosb@H@std@@2W4_Seekdir@12@B DD 00H		; std::_Iosb<int>::beg
CONST	ENDS
;	COMDAT ?binary@?$_Iosb@H@std@@2W4_Openmode@12@B
CONST	SEGMENT
?binary@?$_Iosb@H@std@@2W4_Openmode@12@B DD 020H	; std::_Iosb<int>::binary
CONST	ENDS
;	COMDAT ?_Noreplace@?$_Iosb@H@std@@2W4_Openmode@12@B
CONST	SEGMENT
?_Noreplace@?$_Iosb@H@std@@2W4_Openmode@12@B DD 080H	; std::_Iosb<int>::_Noreplace
CONST	ENDS
;	COMDAT ?_Nocreate@?$_Iosb@H@std@@2W4_Openmode@12@B
CONST	SEGMENT
?_Nocreate@?$_Iosb@H@std@@2W4_Openmode@12@B DD 040H	; std::_Iosb<int>::_Nocreate
CONST	ENDS
;	COMDAT ?trunc@?$_Iosb@H@std@@2W4_Openmode@12@B
CONST	SEGMENT
?trunc@?$_Iosb@H@std@@2W4_Openmode@12@B DD 010H		; std::_Iosb<int>::trunc
CONST	ENDS
;	COMDAT ?app@?$_Iosb@H@std@@2W4_Openmode@12@B
CONST	SEGMENT
?app@?$_Iosb@H@std@@2W4_Openmode@12@B DD 08H		; std::_Iosb<int>::app
CONST	ENDS
;	COMDAT ?ate@?$_Iosb@H@std@@2W4_Openmode@12@B
CONST	SEGMENT
?ate@?$_Iosb@H@std@@2W4_Openmode@12@B DD 04H		; std::_Iosb<int>::ate
CONST	ENDS
;	COMDAT ?out@?$_Iosb@H@std@@2W4_Openmode@12@B
CONST	SEGMENT
?out@?$_Iosb@H@std@@2W4_Openmode@12@B DD 02H		; std::_Iosb<int>::out
CONST	ENDS
;	COMDAT ?in@?$_Iosb@H@std@@2W4_Openmode@12@B
CONST	SEGMENT
?in@?$_Iosb@H@std@@2W4_Openmode@12@B DD 01H		; std::_Iosb<int>::in
CONST	ENDS
;	COMDAT ?_Hardfail@?$_Iosb@H@std@@2W4_Iostate@12@B
CONST	SEGMENT
?_Hardfail@?$_Iosb@H@std@@2W4_Iostate@12@B DD 010H	; std::_Iosb<int>::_Hardfail
CONST	ENDS
;	COMDAT ?badbit@?$_Iosb@H@std@@2W4_Iostate@12@B
CONST	SEGMENT
?badbit@?$_Iosb@H@std@@2W4_Iostate@12@B DD 04H		; std::_Iosb<int>::badbit
CONST	ENDS
;	COMDAT ?failbit@?$_Iosb@H@std@@2W4_Iostate@12@B
CONST	SEGMENT
?failbit@?$_Iosb@H@std@@2W4_Iostate@12@B DD 02H		; std::_Iosb<int>::failbit
CONST	ENDS
;	COMDAT ?eofbit@?$_Iosb@H@std@@2W4_Iostate@12@B
CONST	SEGMENT
?eofbit@?$_Iosb@H@std@@2W4_Iostate@12@B DD 01H		; std::_Iosb<int>::eofbit
CONST	ENDS
;	COMDAT ?goodbit@?$_Iosb@H@std@@2W4_Iostate@12@B
CONST	SEGMENT
?goodbit@?$_Iosb@H@std@@2W4_Iostate@12@B DD 00H		; std::_Iosb<int>::goodbit
CONST	ENDS
;	COMDAT ?floatfield@?$_Iosb@H@std@@2W4_Fmtflags@12@B
CONST	SEGMENT
?floatfield@?$_Iosb@H@std@@2W4_Fmtflags@12@B DD 03000H	; std::_Iosb<int>::floatfield
CONST	ENDS
;	COMDAT ?basefield@?$_Iosb@H@std@@2W4_Fmtflags@12@B
CONST	SEGMENT
?basefield@?$_Iosb@H@std@@2W4_Fmtflags@12@B DD 0e00H	; std::_Iosb<int>::basefield
CONST	ENDS
;	COMDAT ?adjustfield@?$_Iosb@H@std@@2W4_Fmtflags@12@B
CONST	SEGMENT
?adjustfield@?$_Iosb@H@std@@2W4_Fmtflags@12@B DD 01c0H	; std::_Iosb<int>::adjustfield
CONST	ENDS
;	COMDAT ?_Stdio@?$_Iosb@H@std@@2W4_Fmtflags@12@B
CONST	SEGMENT
?_Stdio@?$_Iosb@H@std@@2W4_Fmtflags@12@B DD 08000H	; std::_Iosb<int>::_Stdio
CONST	ENDS
;	COMDAT ?boolalpha@?$_Iosb@H@std@@2W4_Fmtflags@12@B
CONST	SEGMENT
?boolalpha@?$_Iosb@H@std@@2W4_Fmtflags@12@B DD 04000H	; std::_Iosb<int>::boolalpha
CONST	ENDS
;	COMDAT ?hexfloat@?$_Iosb@H@std@@2W4_Fmtflags@12@B
CONST	SEGMENT
?hexfloat@?$_Iosb@H@std@@2W4_Fmtflags@12@B DD 03000H	; std::_Iosb<int>::hexfloat
CONST	ENDS
;	COMDAT ?fixed@?$_Iosb@H@std@@2W4_Fmtflags@12@B
CONST	SEGMENT
?fixed@?$_Iosb@H@std@@2W4_Fmtflags@12@B DD 02000H	; std::_Iosb<int>::fixed
CONST	ENDS
;	COMDAT ?scientific@?$_Iosb@H@std@@2W4_Fmtflags@12@B
CONST	SEGMENT
?scientific@?$_Iosb@H@std@@2W4_Fmtflags@12@B DD 01000H	; std::_Iosb<int>::scientific
CONST	ENDS
;	COMDAT ?hex@?$_Iosb@H@std@@2W4_Fmtflags@12@B
CONST	SEGMENT
?hex@?$_Iosb@H@std@@2W4_Fmtflags@12@B DD 0800H		; std::_Iosb<int>::hex
CONST	ENDS
;	COMDAT ?oct@?$_Iosb@H@std@@2W4_Fmtflags@12@B
CONST	SEGMENT
?oct@?$_Iosb@H@std@@2W4_Fmtflags@12@B DD 0400H		; std::_Iosb<int>::oct
CONST	ENDS
;	COMDAT ?dec@?$_Iosb@H@std@@2W4_Fmtflags@12@B
CONST	SEGMENT
?dec@?$_Iosb@H@std@@2W4_Fmtflags@12@B DD 0200H		; std::_Iosb<int>::dec
CONST	ENDS
;	COMDAT ?internal@?$_Iosb@H@std@@2W4_Fmtflags@12@B
CONST	SEGMENT
?internal@?$_Iosb@H@std@@2W4_Fmtflags@12@B DD 0100H	; std::_Iosb<int>::internal
CONST	ENDS
;	COMDAT ?right@?$_Iosb@H@std@@2W4_Fmtflags@12@B
CONST	SEGMENT
?right@?$_Iosb@H@std@@2W4_Fmtflags@12@B DD 080H		; std::_Iosb<int>::right
CONST	ENDS
;	COMDAT ?left@?$_Iosb@H@std@@2W4_Fmtflags@12@B
CONST	SEGMENT
?left@?$_Iosb@H@std@@2W4_Fmtflags@12@B DD 040H		; std::_Iosb<int>::left
CONST	ENDS
;	COMDAT ?showpos@?$_Iosb@H@std@@2W4_Fmtflags@12@B
CONST	SEGMENT
?showpos@?$_Iosb@H@std@@2W4_Fmtflags@12@B DD 020H	; std::_Iosb<int>::showpos
CONST	ENDS
;	COMDAT ?showpoint@?$_Iosb@H@std@@2W4_Fmtflags@12@B
CONST	SEGMENT
?showpoint@?$_Iosb@H@std@@2W4_Fmtflags@12@B DD 010H	; std::_Iosb<int>::showpoint
CONST	ENDS
;	COMDAT ?showbase@?$_Iosb@H@std@@2W4_Fmtflags@12@B
CONST	SEGMENT
?showbase@?$_Iosb@H@std@@2W4_Fmtflags@12@B DD 08H	; std::_Iosb<int>::showbase
CONST	ENDS
;	COMDAT ?uppercase@?$_Iosb@H@std@@2W4_Fmtflags@12@B
CONST	SEGMENT
?uppercase@?$_Iosb@H@std@@2W4_Fmtflags@12@B DD 04H	; std::_Iosb<int>::uppercase
CONST	ENDS
;	COMDAT ?unitbuf@?$_Iosb@H@std@@2W4_Fmtflags@12@B
CONST	SEGMENT
?unitbuf@?$_Iosb@H@std@@2W4_Fmtflags@12@B DD 02H	; std::_Iosb<int>::unitbuf
CONST	ENDS
;	COMDAT ?skipws@?$_Iosb@H@std@@2W4_Fmtflags@12@B
CONST	SEGMENT
?skipws@?$_Iosb@H@std@@2W4_Fmtflags@12@B DD 01H		; std::_Iosb<int>::skipws
CONST	ENDS
;	COMDAT ?none@?$_Locbase@H@std@@2HB
CONST	SEGMENT
?none@?$_Locbase@H@std@@2HB DD 00H			; std::_Locbase<int>::none
CONST	ENDS
;	COMDAT ?all@?$_Locbase@H@std@@2HB
CONST	SEGMENT
?all@?$_Locbase@H@std@@2HB DD 03fH			; std::_Locbase<int>::all
CONST	ENDS
;	COMDAT ?messages@?$_Locbase@H@std@@2HB
CONST	SEGMENT
?messages@?$_Locbase@H@std@@2HB DD 020H			; std::_Locbase<int>::messages
CONST	ENDS
;	COMDAT ?time@?$_Locbase@H@std@@2HB
CONST	SEGMENT
?time@?$_Locbase@H@std@@2HB DD 010H			; std::_Locbase<int>::time
CONST	ENDS
;	COMDAT ?numeric@?$_Locbase@H@std@@2HB
CONST	SEGMENT
?numeric@?$_Locbase@H@std@@2HB DD 08H			; std::_Locbase<int>::numeric
CONST	ENDS
;	COMDAT ?monetary@?$_Locbase@H@std@@2HB
CONST	SEGMENT
?monetary@?$_Locbase@H@std@@2HB DD 04H			; std::_Locbase<int>::monetary
CONST	ENDS
;	COMDAT ?ctype@?$_Locbase@H@std@@2HB
CONST	SEGMENT
?ctype@?$_Locbase@H@std@@2HB DD 02H			; std::_Locbase<int>::ctype
CONST	ENDS
;	COMDAT ?collate@?$_Locbase@H@std@@2HB
CONST	SEGMENT
?collate@?$_Locbase@H@std@@2HB DD 01H			; std::_Locbase<int>::collate
CONST	ENDS
;	COMDAT ?_Value@?$_Is_swap_move@U_Swap_move_tag@std@@@std@@2_NB
CONST	SEGMENT
?_Value@?$_Is_swap_move@U_Swap_move_tag@std@@@std@@2_NB DB 01H ; std::_Is_swap_move<std::_Swap_move_tag>::_Value
CONST	ENDS
;	COMDAT ??_C@_0P@GHFPNOJB@bad?5allocation?$AA@
CONST	SEGMENT
??_C@_0P@GHFPNOJB@bad?5allocation?$AA@ DB 'bad allocation', 00H ; `string'
__bad_alloc_Message DD FLAT:??_C@_0P@GHFPNOJB@bad?5allocation?$AA@
PUBLIC	??1LinkDestInterop@@QAE@XZ			; LinkDestInterop::~LinkDestInterop
; Function compile flags: /Ogtpy
; File c:\projects\pdflibnet\libafpdflib\linkdestinterop.cpp
;	COMDAT ??1LinkDestInterop@@QAE@XZ
_TEXT	SEGMENT
??1LinkDestInterop@@QAE@XZ PROC				; LinkDestInterop::~LinkDestInterop, COMDAT
; _this$ = ecx

; 13   : }

	ret	0
??1LinkDestInterop@@QAE@XZ ENDP				; LinkDestInterop::~LinkDestInterop
_TEXT	ENDS
PUBLIC	??0LinkDestInterop@@QAE@PAXPAVAFPDFDocInterop@@@Z ; LinkDestInterop::LinkDestInterop
; Function compile flags: /Ogtpy
;	COMDAT ??0LinkDestInterop@@QAE@PAXPAVAFPDFDocInterop@@@Z
_TEXT	SEGMENT
??0LinkDestInterop@@QAE@PAXPAVAFPDFDocInterop@@@Z PROC	; LinkDestInterop::LinkDestInterop, COMDAT
; _this$ = eax
; _ptr$ = ecx
; _pdfdoc$ = edx

; 8    : {

	mov	DWORD PTR [eax], ecx
	mov	DWORD PTR [eax+4], edx

; 9    : }

	ret	0
??0LinkDestInterop@@QAE@PAXPAVAFPDFDocInterop@@@Z ENDP	; LinkDestInterop::LinkDestInterop
; Function compile flags: /Ogtpy
; File c:\projects\pdflibnet\xpdfwin\xpdf\link.h
_TEXT	ENDS
;	COMDAT ?getChangeZoom@LinkDest@@QAEHXZ
_TEXT	SEGMENT
?getChangeZoom@LinkDest@@QAEHXZ PROC			; LinkDest::getChangeZoom, COMDAT
; _this$ = eax

; 100  :   GBool getChangeZoom() { return changeZoom; }

	mov	eax, DWORD PTR [eax+64]
	ret	0
?getChangeZoom@LinkDest@@QAEHXZ ENDP			; LinkDest::getChangeZoom
; Function compile flags: /Ogtpy
_TEXT	ENDS
;	COMDAT ?getChangeTop@LinkDest@@QAEHXZ
_TEXT	SEGMENT
?getChangeTop@LinkDest@@QAEHXZ PROC			; LinkDest::getChangeTop, COMDAT
; _this$ = eax

; 99   :   GBool getChangeTop() { return changeTop; }

	mov	eax, DWORD PTR [eax+60]
	ret	0
?getChangeTop@LinkDest@@QAEHXZ ENDP			; LinkDest::getChangeTop
; Function compile flags: /Ogtpy
_TEXT	ENDS
;	COMDAT ?getChangeLeft@LinkDest@@QAEHXZ
_TEXT	SEGMENT
?getChangeLeft@LinkDest@@QAEHXZ PROC			; LinkDest::getChangeLeft, COMDAT
; _this$ = eax

; 98   :   GBool getChangeLeft() { return changeLeft; }

	mov	eax, DWORD PTR [eax+56]
	ret	0
?getChangeLeft@LinkDest@@QAEHXZ ENDP			; LinkDest::getChangeLeft
; Function compile flags: /Ogtpy
_TEXT	ENDS
;	COMDAT ?getZoom@LinkDest@@QAENXZ
_TEXT	SEGMENT
?getZoom@LinkDest@@QAENXZ PROC				; LinkDest::getZoom, COMDAT
; _this$ = eax

; 97   :   double getZoom() { return zoom; }

	fld	QWORD PTR [eax+48]
	ret	0
?getZoom@LinkDest@@QAENXZ ENDP				; LinkDest::getZoom
; Function compile flags: /Ogtpy
_TEXT	ENDS
;	COMDAT ?getTop@LinkDest@@QAENXZ
_TEXT	SEGMENT
?getTop@LinkDest@@QAENXZ PROC				; LinkDest::getTop, COMDAT
; _this$ = eax

; 96   :   double getTop() { return top; }

	fld	QWORD PTR [eax+40]
	ret	0
?getTop@LinkDest@@QAENXZ ENDP				; LinkDest::getTop
; Function compile flags: /Ogtpy
_TEXT	ENDS
;	COMDAT ?getRight@LinkDest@@QAENXZ
_TEXT	SEGMENT
?getRight@LinkDest@@QAENXZ PROC				; LinkDest::getRight, COMDAT
; _this$ = eax

; 95   :   double getRight() { return right; }

	fld	QWORD PTR [eax+32]
	ret	0
?getRight@LinkDest@@QAENXZ ENDP				; LinkDest::getRight
; Function compile flags: /Ogtpy
_TEXT	ENDS
;	COMDAT ?getBottom@LinkDest@@QAENXZ
_TEXT	SEGMENT
?getBottom@LinkDest@@QAENXZ PROC			; LinkDest::getBottom, COMDAT
; _this$ = eax

; 94   :   double getBottom() { return bottom; }

	fld	QWORD PTR [eax+24]
	ret	0
?getBottom@LinkDest@@QAENXZ ENDP			; LinkDest::getBottom
; Function compile flags: /Ogtpy
_TEXT	ENDS
;	COMDAT ?getLeft@LinkDest@@QAENXZ
_TEXT	SEGMENT
?getLeft@LinkDest@@QAENXZ PROC				; LinkDest::getLeft, COMDAT
; _this$ = eax

; 93   :   double getLeft() { return left; }

	fld	QWORD PTR [eax+16]
	ret	0
?getLeft@LinkDest@@QAENXZ ENDP				; LinkDest::getLeft
; Function compile flags: /Ogtpy
_TEXT	ENDS
;	COMDAT ?getPageRef@LinkDest@@QAE?AURef@@XZ
_TEXT	SEGMENT
?getPageRef@LinkDest@@QAE?AURef@@XZ PROC		; LinkDest::getPageRef, COMDAT
; _this$ = ecx
; ___$ReturnUdt$ = eax

; 92   :   Ref getPageRef() { return pageRef; }

	mov	edx, DWORD PTR [ecx+8]
	mov	ecx, DWORD PTR [ecx+12]
	mov	DWORD PTR [eax], edx
	mov	DWORD PTR [eax+4], ecx
	ret	0
?getPageRef@LinkDest@@QAE?AURef@@XZ ENDP		; LinkDest::getPageRef
; Function compile flags: /Ogtpy
_TEXT	ENDS
;	COMDAT ?getPageNum@LinkDest@@QAEHXZ
_TEXT	SEGMENT
?getPageNum@LinkDest@@QAEHXZ PROC			; LinkDest::getPageNum, COMDAT
; _this$ = eax

; 91   :   int getPageNum() { return pageNum; }

	mov	eax, DWORD PTR [eax+8]
	ret	0
?getPageNum@LinkDest@@QAEHXZ ENDP			; LinkDest::getPageNum
; Function compile flags: /Ogtpy
_TEXT	ENDS
;	COMDAT ?isPageRef@LinkDest@@QAEHXZ
_TEXT	SEGMENT
?isPageRef@LinkDest@@QAEHXZ PROC			; LinkDest::isPageRef, COMDAT
; _this$ = eax

; 90   :   GBool isPageRef() { return pageIsRef; }

	mov	eax, DWORD PTR [eax+4]
	ret	0
?isPageRef@LinkDest@@QAEHXZ ENDP			; LinkDest::isPageRef
PUBLIC	?getChangeZoom@LinkDestInterop@@QAE_NXZ		; LinkDestInterop::getChangeZoom
; Function compile flags: /Ogtpy
; File c:\projects\pdflibnet\libafpdflib\linkdestinterop.cpp
;	COMDAT ?getChangeZoom@LinkDestInterop@@QAE_NXZ
_TEXT	SEGMENT
?getChangeZoom@LinkDestInterop@@QAE_NXZ PROC		; LinkDestInterop::getChangeZoom, COMDAT
; _this$ = ecx

; 51   : 	return ((LinkDest *)_ptr)->getChangeZoom();

	mov	eax, DWORD PTR [ecx]
	cmp	DWORD PTR [eax+64], 0
	setne	al

; 52   : }

	ret	0
?getChangeZoom@LinkDestInterop@@QAE_NXZ ENDP		; LinkDestInterop::getChangeZoom
_TEXT	ENDS
PUBLIC	?getChangeTop@LinkDestInterop@@QAE_NXZ		; LinkDestInterop::getChangeTop
; Function compile flags: /Ogtpy
;	COMDAT ?getChangeTop@LinkDestInterop@@QAE_NXZ
_TEXT	SEGMENT
?getChangeTop@LinkDestInterop@@QAE_NXZ PROC		; LinkDestInterop::getChangeTop, COMDAT
; _this$ = ecx

; 48   : 	return ((LinkDest *)_ptr)->getChangeTop();

	mov	eax, DWORD PTR [ecx]
	cmp	DWORD PTR [eax+60], 0
	setne	al

; 49   : }

	ret	0
?getChangeTop@LinkDestInterop@@QAE_NXZ ENDP		; LinkDestInterop::getChangeTop
_TEXT	ENDS
PUBLIC	?getChangeLeft@LinkDestInterop@@QAE_NXZ		; LinkDestInterop::getChangeLeft
; Function compile flags: /Ogtpy
;	COMDAT ?getChangeLeft@LinkDestInterop@@QAE_NXZ
_TEXT	SEGMENT
?getChangeLeft@LinkDestInterop@@QAE_NXZ PROC		; LinkDestInterop::getChangeLeft, COMDAT
; _this$ = ecx

; 45   : 	return ((LinkDest *)_ptr)->getChangeLeft();

	mov	eax, DWORD PTR [ecx]
	cmp	DWORD PTR [eax+56], 0
	setne	al

; 46   : }

	ret	0
?getChangeLeft@LinkDestInterop@@QAE_NXZ ENDP		; LinkDestInterop::getChangeLeft
_TEXT	ENDS
PUBLIC	?getZoom@LinkDestInterop@@QAENXZ		; LinkDestInterop::getZoom
; Function compile flags: /Ogtpy
;	COMDAT ?getZoom@LinkDestInterop@@QAENXZ
_TEXT	SEGMENT
?getZoom@LinkDestInterop@@QAENXZ PROC			; LinkDestInterop::getZoom, COMDAT
; _this$ = ecx

; 42   : 	return ((LinkDest *)_ptr)->getZoom();

	mov	eax, DWORD PTR [ecx]
	fld	QWORD PTR [eax+48]

; 43   : }

	ret	0
?getZoom@LinkDestInterop@@QAENXZ ENDP			; LinkDestInterop::getZoom
_TEXT	ENDS
PUBLIC	?getTop@LinkDestInterop@@QAENXZ			; LinkDestInterop::getTop
; Function compile flags: /Ogtpy
;	COMDAT ?getTop@LinkDestInterop@@QAENXZ
_TEXT	SEGMENT
?getTop@LinkDestInterop@@QAENXZ PROC			; LinkDestInterop::getTop, COMDAT
; _this$ = ecx

; 39   : 	return ((LinkDest *)_ptr)->getTop();

	mov	eax, DWORD PTR [ecx]
	fld	QWORD PTR [eax+40]

; 40   : }

	ret	0
?getTop@LinkDestInterop@@QAENXZ ENDP			; LinkDestInterop::getTop
_TEXT	ENDS
PUBLIC	?getRight@LinkDestInterop@@QAENXZ		; LinkDestInterop::getRight
; Function compile flags: /Ogtpy
;	COMDAT ?getRight@LinkDestInterop@@QAENXZ
_TEXT	SEGMENT
?getRight@LinkDestInterop@@QAENXZ PROC			; LinkDestInterop::getRight, COMDAT
; _this$ = ecx

; 36   : 	return ((LinkDest *)_ptr)->getRight();

	mov	eax, DWORD PTR [ecx]
	fld	QWORD PTR [eax+32]

; 37   : }

	ret	0
?getRight@LinkDestInterop@@QAENXZ ENDP			; LinkDestInterop::getRight
_TEXT	ENDS
PUBLIC	?getBottom@LinkDestInterop@@QAENXZ		; LinkDestInterop::getBottom
; Function compile flags: /Ogtpy
;	COMDAT ?getBottom@LinkDestInterop@@QAENXZ
_TEXT	SEGMENT
?getBottom@LinkDestInterop@@QAENXZ PROC			; LinkDestInterop::getBottom, COMDAT
; _this$ = ecx

; 33   : 	return ((LinkDest *)_ptr)->getBottom();

	mov	eax, DWORD PTR [ecx]
	fld	QWORD PTR [eax+24]

; 34   : }

	ret	0
?getBottom@LinkDestInterop@@QAENXZ ENDP			; LinkDestInterop::getBottom
_TEXT	ENDS
PUBLIC	?getLeft@LinkDestInterop@@QAENXZ		; LinkDestInterop::getLeft
; Function compile flags: /Ogtpy
;	COMDAT ?getLeft@LinkDestInterop@@QAENXZ
_TEXT	SEGMENT
?getLeft@LinkDestInterop@@QAENXZ PROC			; LinkDestInterop::getLeft, COMDAT
; _this$ = ecx

; 30   : 	return ((LinkDest *)_ptr)->getLeft();

	mov	eax, DWORD PTR [ecx]
	fld	QWORD PTR [eax+16]

; 31   : }

	ret	0
?getLeft@LinkDestInterop@@QAENXZ ENDP			; LinkDestInterop::getLeft
_TEXT	ENDS
PUBLIC	?isPageRef@LinkDestInterop@@QAE_NXZ		; LinkDestInterop::isPageRef
; Function compile flags: /Ogtpy
;	COMDAT ?isPageRef@LinkDestInterop@@QAE_NXZ
_TEXT	SEGMENT
?isPageRef@LinkDestInterop@@QAE_NXZ PROC		; LinkDestInterop::isPageRef, COMDAT
; _this$ = eax

; 16   : 	return ((LinkDest *)_ptr)->isPageRef();

	mov	ecx, DWORD PTR [eax]
	cmp	DWORD PTR [ecx+4], 0
	setne	al

; 17   : }

	ret	0
?isPageRef@LinkDestInterop@@QAE_NXZ ENDP		; LinkDestInterop::isPageRef
PUBLIC	?getPageNum@LinkDestInterop@@QAEHXZ		; LinkDestInterop::getPageNum
; Function compile flags: /Ogtpy
;	COMDAT ?getPageNum@LinkDestInterop@@QAEHXZ
_TEXT	SEGMENT
?getPageNum@LinkDestInterop@@QAEHXZ PROC		; LinkDestInterop::getPageNum, COMDAT
; _this$ = ecx

; 19   : 	int page=0;
; 20   : 	if(_ptr!=0){

	mov	edx, DWORD PTR [ecx]
	xor	eax, eax
	test	edx, edx
	je	SHORT $LN16@getPageNum

; 21   : 		if(((LinkDest *)_ptr)->isPageRef() ){

	cmp	DWORD PTR [edx+4], eax

; 22   : 			Ref r= ((LinkDest *)_ptr)->getPageRef();

	mov	eax, DWORD PTR [edx+8]
	je	SHORT $LN16@getPageNum

; 23   : 			page=_pdfDoc->findPage(r.num,r.gen);

	mov	ecx, DWORD PTR [ecx+4]
	mov	ecx, DWORD PTR [ecx+4]
	mov	edx, DWORD PTR [edx+12]
	mov	ecx, DWORD PTR [ecx+332]
	mov	ecx, DWORD PTR [ecx+28]
	push	edx
	push	eax
	call	?findPage@Catalog@@QAEHHH@Z		; Catalog::findPage

; 24   : 		}else
; 25   : 			page=((LinkDest *)_ptr)->getPageNum();

$LN16@getPageNum:

; 26   : 	}
; 27   : 	return page;
; 28   : }

	ret	0
?getPageNum@LinkDestInterop@@QAEHXZ ENDP		; LinkDestInterop::getPageNum
END
